{
 "array_types" : [],
 "builtin_types" : [],
 "elf_functions" :
 [
  {
   "binding" : "weak",
   "name" : "_ZN7android8hardware7details13castInterfaceINS0_8graphics6mapper4V4_07IMapperENS_4hidl4base4V1_05IBaseENS5_10BpHwMapperEEENS0_6ReturnINS_2spIT_EEEENSD_IT0_EEPKcb"
  },
  {
   "binding" : "weak",
   "name" : "_ZN7android8hardware7details18getServiceInternalINS0_8graphics6mapper4V4_010BpHwMapperENS5_7IMapperEvvEENS_2spIT0_EERKNSt3__112basic_stringIcNSB_11char_traitsIcEENSB_9allocatorIcEEEEbb"
  },
  {
   "name" : "_ZN7android8hardware8graphics6mapper4V4_010BnHwMapper10_hidl_lockEPNS_4hidl4base4V1_08BnHwBaseERKNS0_6ParcelEPSA_NSt3__18functionIFvRSA_EEE"
  },
  {
   "name" : "_ZN7android8hardware8graphics6mapper4V4_010BnHwMapper10onTransactEjRKNS0_6ParcelEPS5_jNSt3__18functionIFvRS5_EEE"
  },
  {
   "name" : "_ZN7android8hardware8graphics6mapper4V4_010BnHwMapper12_hidl_unlockEPNS_4hidl4base4V1_08BnHwBaseERKNS0_6ParcelEPSA_NSt3__18functionIFvRSA_EEE"
  },
  {
   "name" : "_ZN7android8hardware8graphics6mapper4V4_010BnHwMapper12getDebugInfoENSt3__18functionIFvRKNS_4hidl4base4V1_09DebugInfoEEEE"
  },
  {
   "name" : "_ZN7android8hardware8graphics6mapper4V4_010BnHwMapper16_hidl_dumpBufferEPNS_4hidl4base4V1_08BnHwBaseERKNS0_6ParcelEPSA_NSt3__18functionIFvRSA_EEE"
  },
  {
   "name" : "_ZN7android8hardware8graphics6mapper4V4_010BnHwMapper16_hidl_freeBufferEPNS_4hidl4base4V1_08BnHwBaseERKNS0_6ParcelEPSA_NSt3__18functionIFvRSA_EEE"
  },
  {
   "name" : "_ZN7android8hardware8graphics6mapper4V4_010BnHwMapper17_hidl_dumpBuffersEPNS_4hidl4base4V1_08BnHwBaseERKNS0_6ParcelEPSA_NSt3__18functionIFvRSA_EEE"
  },
  {
   "name" : "_ZN7android8hardware8graphics6mapper4V4_010BnHwMapper17_hidl_isSupportedEPNS_4hidl4base4V1_08BnHwBaseERKNS0_6ParcelEPSA_NSt3__18functionIFvRSA_EEE"
  },
  {
   "name" : "_ZN7android8hardware8graphics6mapper4V4_010BnHwMapper18_hidl_importBufferEPNS_4hidl4base4V1_08BnHwBaseERKNS0_6ParcelEPSA_NSt3__18functionIFvRSA_EEE"
  },
  {
   "name" : "_ZN7android8hardware8graphics6mapper4V4_010BnHwMapper22_hidl_createDescriptorEPNS_4hidl4base4V1_08BnHwBaseERKNS0_6ParcelEPSA_NSt3__18functionIFvRSA_EEE"
  },
  {
   "name" : "_ZN7android8hardware8graphics6mapper4V4_010BnHwMapper22_hidl_getTransportSizeEPNS_4hidl4base4V1_08BnHwBaseERKNS0_6ParcelEPSA_NSt3__18functionIFvRSA_EEE"
  },
  {
   "name" : "_ZN7android8hardware8graphics6mapper4V4_010BnHwMapper23_hidl_flushLockedBufferEPNS_4hidl4base4V1_08BnHwBaseERKNS0_6ParcelEPSA_NSt3__18functionIFvRSA_EEE"
  },
  {
   "name" : "_ZN7android8hardware8graphics6mapper4V4_010BnHwMapper23_hidl_getReservedRegionEPNS_4hidl4base4V1_08BnHwBaseERKNS0_6ParcelEPSA_NSt3__18functionIFvRSA_EEE"
  },
  {
   "name" : "_ZN7android8hardware8graphics6mapper4V4_010BnHwMapper24_hidl_rereadLockedBufferEPNS_4hidl4base4V1_08BnHwBaseERKNS0_6ParcelEPSA_NSt3__18functionIFvRSA_EEE"
  },
  {
   "name" : "_ZN7android8hardware8graphics6mapper4V4_010BnHwMapper24_hidl_validateBufferSizeEPNS_4hidl4base4V1_08BnHwBaseERKNS0_6ParcelEPSA_NSt3__18functionIFvRSA_EEE"
  },
  {
   "name" : "_ZN7android8hardware8graphics6mapper4V4_010BnHwMapper32_hidl_listSupportedMetadataTypesEPNS_4hidl4base4V1_08BnHwBaseERKNS0_6ParcelEPSA_NSt3__18functionIFvRSA_EEE"
  },
  {
   "name" : "_ZN7android8hardware8graphics6mapper4V4_010BnHwMapper33_hidl_getFromBufferDescriptorInfoEPNS_4hidl4base4V1_08BnHwBaseERKNS0_6ParcelEPSA_NSt3__18functionIFvRSA_EEE"
  },
  {
   "name" : "_ZN7android8hardware8graphics6mapper4V4_010BnHwMapper4pingEv"
  },
  {
   "name" : "_ZN7android8hardware8graphics6mapper4V4_010BnHwMapper9_hidl_getEPNS_4hidl4base4V1_08BnHwBaseERKNS0_6ParcelEPSA_NSt3__18functionIFvRSA_EEE"
  },
  {
   "name" : "_ZN7android8hardware8graphics6mapper4V4_010BnHwMapper9_hidl_setEPNS_4hidl4base4V1_08BnHwBaseERKNS0_6ParcelEPSA_NSt3__18functionIFvRSA_EEE"
  },
  {
   "name" : "_ZN7android8hardware8graphics6mapper4V4_010BnHwMapperC1ERKNS_2spINS3_7IMapperEEE"
  },
  {
   "name" : "_ZN7android8hardware8graphics6mapper4V4_010BnHwMapperC2ERKNS_2spINS3_7IMapperEEE"
  },
  {
   "name" : "_ZN7android8hardware8graphics6mapper4V4_010BnHwMapperD0Ev"
  },
  {
   "name" : "_ZN7android8hardware8graphics6mapper4V4_010BnHwMapperD1Ev"
  },
  {
   "name" : "_ZN7android8hardware8graphics6mapper4V4_010BnHwMapperD2Ev"
  },
  {
   "name" : "_ZN7android8hardware8graphics6mapper4V4_010BpHwMapper10_hidl_lockEPNS0_10IInterfaceEPNS0_7details16HidlInstrumentorEPvmRKNS3_7IMapper4RectERKNS0_11hidl_handleENSt3__18functionIFvNS3_5ErrorESA_EEE"
  },
  {
   "name" : "_ZN7android8hardware8graphics6mapper4V4_010BpHwMapper10dumpBufferEPvNSt3__18functionIFvNS3_5ErrorERKNS3_7IMapper10BufferDumpEEEE"
  },
  {
   "name" : "_ZN7android8hardware8graphics6mapper4V4_010BpHwMapper10freeBufferEPv"
  },
  {
   "name" : "_ZN7android8hardware8graphics6mapper4V4_010BpHwMapper11dumpBuffersENSt3__18functionIFvNS3_5ErrorERKNS0_8hidl_vecINS3_7IMapper10BufferDumpEEEEEE"
  },
  {
   "name" : "_ZN7android8hardware8graphics6mapper4V4_010BpHwMapper11isSupportedERKNS3_7IMapper20BufferDescriptorInfoENSt3__18functionIFvNS3_5ErrorEbEEE"
  },
  {
   "name" : "_ZN7android8hardware8graphics6mapper4V4_010BpHwMapper11linkToDeathERKNS_2spINS0_20hidl_death_recipientEEEm"
  },
  {
   "name" : "_ZN7android8hardware8graphics6mapper4V4_010BpHwMapper12_hidl_unlockEPNS0_10IInterfaceEPNS0_7details16HidlInstrumentorEPvNSt3__18functionIFvNS3_5ErrorERKNS0_11hidl_handleEEEE"
  },
  {
   "name" : "_ZN7android8hardware8graphics6mapper4V4_010BpHwMapper12getDebugInfoENSt3__18functionIFvRKNS_4hidl4base4V1_09DebugInfoEEEE"
  },
  {
   "name" : "_ZN7android8hardware8graphics6mapper4V4_010BpHwMapper12getHashChainENSt3__18functionIFvRKNS0_8hidl_vecINS0_10hidl_arrayIhLm32EJEEEEEEEE"
  },
  {
   "name" : "_ZN7android8hardware8graphics6mapper4V4_010BpHwMapper12importBufferERKNS0_11hidl_handleENSt3__18functionIFvNS3_5ErrorEPvEEE"
  },
  {
   "name" : "_ZN7android8hardware8graphics6mapper4V4_010BpHwMapper13unlinkToDeathERKNS_2spINS0_20hidl_death_recipientEEE"
  },
  {
   "name" : "_ZN7android8hardware8graphics6mapper4V4_010BpHwMapper14interfaceChainENSt3__18functionIFvRKNS0_8hidl_vecINS0_11hidl_stringEEEEEE"
  },
  {
   "name" : "_ZN7android8hardware8graphics6mapper4V4_010BpHwMapper15onLastStrongRefEPKv"
  },
  {
   "name" : "_ZN7android8hardware8graphics6mapper4V4_010BpHwMapper16_hidl_dumpBufferEPNS0_10IInterfaceEPNS0_7details16HidlInstrumentorEPvNSt3__18functionIFvNS3_5ErrorERKNS3_7IMapper10BufferDumpEEEE"
  },
  {
   "name" : "_ZN7android8hardware8graphics6mapper4V4_010BpHwMapper16_hidl_freeBufferEPNS0_10IInterfaceEPNS0_7details16HidlInstrumentorEPv"
  },
  {
   "name" : "_ZN7android8hardware8graphics6mapper4V4_010BpHwMapper16createDescriptorERKNS3_7IMapper20BufferDescriptorInfoENSt3__18functionIFvNS3_5ErrorERKNS0_8hidl_vecIhEEEEE"
  },
  {
   "name" : "_ZN7android8hardware8graphics6mapper4V4_010BpHwMapper16getTransportSizeEPvNSt3__18functionIFvNS3_5ErrorEjjEEE"
  },
  {
   "name" : "_ZN7android8hardware8graphics6mapper4V4_010BpHwMapper17_hidl_dumpBuffersEPNS0_10IInterfaceEPNS0_7details16HidlInstrumentorENSt3__18functionIFvNS3_5ErrorERKNS0_8hidl_vecINS3_7IMapper10BufferDumpEEEEEE"
  },
  {
   "name" : "_ZN7android8hardware8graphics6mapper4V4_010BpHwMapper17_hidl_isSupportedEPNS0_10IInterfaceEPNS0_7details16HidlInstrumentorERKNS3_7IMapper20BufferDescriptorInfoENSt3__18functionIFvNS3_5ErrorEbEEE"
  },
  {
   "name" : "_ZN7android8hardware8graphics6mapper4V4_010BpHwMapper17flushLockedBufferEPvNSt3__18functionIFvNS3_5ErrorERKNS0_11hidl_handleEEEE"
  },
  {
   "name" : "_ZN7android8hardware8graphics6mapper4V4_010BpHwMapper17getReservedRegionEPvNSt3__18functionIFvNS3_5ErrorES5_mEEE"
  },
  {
   "name" : "_ZN7android8hardware8graphics6mapper4V4_010BpHwMapper18_hidl_importBufferEPNS0_10IInterfaceEPNS0_7details16HidlInstrumentorERKNS0_11hidl_handleENSt3__18functionIFvNS3_5ErrorEPvEEE"
  },
  {
   "name" : "_ZN7android8hardware8graphics6mapper4V4_010BpHwMapper18rereadLockedBufferEPv"
  },
  {
   "name" : "_ZN7android8hardware8graphics6mapper4V4_010BpHwMapper18validateBufferSizeEPvRKNS3_7IMapper20BufferDescriptorInfoEj"
  },
  {
   "name" : "_ZN7android8hardware8graphics6mapper4V4_010BpHwMapper19interfaceDescriptorENSt3__18functionIFvRKNS0_11hidl_stringEEEE"
  },
  {
   "name" : "_ZN7android8hardware8graphics6mapper4V4_010BpHwMapper21notifySyspropsChangedEv"
  },
  {
   "name" : "_ZN7android8hardware8graphics6mapper4V4_010BpHwMapper21setHALInstrumentationEv"
  },
  {
   "name" : "_ZN7android8hardware8graphics6mapper4V4_010BpHwMapper22_hidl_createDescriptorEPNS0_10IInterfaceEPNS0_7details16HidlInstrumentorERKNS3_7IMapper20BufferDescriptorInfoENSt3__18functionIFvNS3_5ErrorERKNS0_8hidl_vecIhEEEEE"
  },
  {
   "name" : "_ZN7android8hardware8graphics6mapper4V4_010BpHwMapper22_hidl_getTransportSizeEPNS0_10IInterfaceEPNS0_7details16HidlInstrumentorEPvNSt3__18functionIFvNS3_5ErrorEjjEEE"
  },
  {
   "name" : "_ZN7android8hardware8graphics6mapper4V4_010BpHwMapper23_hidl_flushLockedBufferEPNS0_10IInterfaceEPNS0_7details16HidlInstrumentorEPvNSt3__18functionIFvNS3_5ErrorERKNS0_11hidl_handleEEEE"
  },
  {
   "name" : "_ZN7android8hardware8graphics6mapper4V4_010BpHwMapper23_hidl_getReservedRegionEPNS0_10IInterfaceEPNS0_7details16HidlInstrumentorEPvNSt3__18functionIFvNS3_5ErrorESA_mEEE"
  },
  {
   "name" : "_ZN7android8hardware8graphics6mapper4V4_010BpHwMapper24_hidl_rereadLockedBufferEPNS0_10IInterfaceEPNS0_7details16HidlInstrumentorEPv"
  },
  {
   "name" : "_ZN7android8hardware8graphics6mapper4V4_010BpHwMapper24_hidl_validateBufferSizeEPNS0_10IInterfaceEPNS0_7details16HidlInstrumentorEPvRKNS3_7IMapper20BufferDescriptorInfoEj"
  },
  {
   "name" : "_ZN7android8hardware8graphics6mapper4V4_010BpHwMapper26listSupportedMetadataTypesENSt3__18functionIFvNS3_5ErrorERKNS0_8hidl_vecINS3_7IMapper23MetadataTypeDescriptionEEEEEE"
  },
  {
   "name" : "_ZN7android8hardware8graphics6mapper4V4_010BpHwMapper27getFromBufferDescriptorInfoERKNS3_7IMapper20BufferDescriptorInfoERKNS5_12MetadataTypeENSt3__18functionIFvNS3_5ErrorERKNS0_8hidl_vecIhEEEEE"
  },
  {
   "name" : "_ZN7android8hardware8graphics6mapper4V4_010BpHwMapper32_hidl_listSupportedMetadataTypesEPNS0_10IInterfaceEPNS0_7details16HidlInstrumentorENSt3__18functionIFvNS3_5ErrorERKNS0_8hidl_vecINS3_7IMapper23MetadataTypeDescriptionEEEEEE"
  },
  {
   "name" : "_ZN7android8hardware8graphics6mapper4V4_010BpHwMapper33_hidl_getFromBufferDescriptorInfoEPNS0_10IInterfaceEPNS0_7details16HidlInstrumentorERKNS3_7IMapper20BufferDescriptorInfoERKNSA_12MetadataTypeENSt3__18functionIFvNS3_5ErrorERKNS0_8hidl_vecIhEEEEE"
  },
  {
   "name" : "_ZN7android8hardware8graphics6mapper4V4_010BpHwMapper3getEPvRKNS3_7IMapper12MetadataTypeENSt3__18functionIFvNS3_5ErrorERKNS0_8hidl_vecIhEEEEE"
  },
  {
   "name" : "_ZN7android8hardware8graphics6mapper4V4_010BpHwMapper3setEPvRKNS3_7IMapper12MetadataTypeERKNS0_8hidl_vecIhEE"
  },
  {
   "name" : "_ZN7android8hardware8graphics6mapper4V4_010BpHwMapper4lockEPvmRKNS3_7IMapper4RectERKNS0_11hidl_handleENSt3__18functionIFvNS3_5ErrorES5_EEE"
  },
  {
   "name" : "_ZN7android8hardware8graphics6mapper4V4_010BpHwMapper4pingEv"
  },
  {
   "name" : "_ZN7android8hardware8graphics6mapper4V4_010BpHwMapper5debugERKNS0_11hidl_handleERKNS0_8hidl_vecINS0_11hidl_stringEEE"
  },
  {
   "name" : "_ZN7android8hardware8graphics6mapper4V4_010BpHwMapper6unlockEPvNSt3__18functionIFvNS3_5ErrorERKNS0_11hidl_handleEEEE"
  },
  {
   "name" : "_ZN7android8hardware8graphics6mapper4V4_010BpHwMapper9_hidl_getEPNS0_10IInterfaceEPNS0_7details16HidlInstrumentorEPvRKNS3_7IMapper12MetadataTypeENSt3__18functionIFvNS3_5ErrorERKNS0_8hidl_vecIhEEEEE"
  },
  {
   "name" : "_ZN7android8hardware8graphics6mapper4V4_010BpHwMapper9_hidl_setEPNS0_10IInterfaceEPNS0_7details16HidlInstrumentorEPvRKNS3_7IMapper12MetadataTypeERKNS0_8hidl_vecIhEE"
  },
  {
   "name" : "_ZN7android8hardware8graphics6mapper4V4_010BpHwMapperC1ERKNS_2spINS0_7IBinderEEE"
  },
  {
   "name" : "_ZN7android8hardware8graphics6mapper4V4_010BpHwMapperC2ERKNS_2spINS0_7IBinderEEE"
  },
  {
   "name" : "_ZN7android8hardware8graphics6mapper4V4_021writeEmbeddedToParcelERKNS3_7IMapper10BufferDumpEPNS0_6ParcelEmm"
  },
  {
   "name" : "_ZN7android8hardware8graphics6mapper4V4_021writeEmbeddedToParcelERKNS3_7IMapper12MetadataDumpEPNS0_6ParcelEmm"
  },
  {
   "name" : "_ZN7android8hardware8graphics6mapper4V4_021writeEmbeddedToParcelERKNS3_7IMapper12MetadataTypeEPNS0_6ParcelEmm"
  },
  {
   "name" : "_ZN7android8hardware8graphics6mapper4V4_021writeEmbeddedToParcelERKNS3_7IMapper20BufferDescriptorInfoEPNS0_6ParcelEmm"
  },
  {
   "name" : "_ZN7android8hardware8graphics6mapper4V4_021writeEmbeddedToParcelERKNS3_7IMapper23MetadataTypeDescriptionEPNS0_6ParcelEmm"
  },
  {
   "name" : "_ZN7android8hardware8graphics6mapper4V4_022readEmbeddedFromParcelERKNS3_7IMapper10BufferDumpERKNS0_6ParcelEmm"
  },
  {
   "name" : "_ZN7android8hardware8graphics6mapper4V4_022readEmbeddedFromParcelERKNS3_7IMapper12MetadataDumpERKNS0_6ParcelEmm"
  },
  {
   "name" : "_ZN7android8hardware8graphics6mapper4V4_022readEmbeddedFromParcelERKNS3_7IMapper12MetadataTypeERKNS0_6ParcelEmm"
  },
  {
   "name" : "_ZN7android8hardware8graphics6mapper4V4_022readEmbeddedFromParcelERKNS3_7IMapper20BufferDescriptorInfoERKNS0_6ParcelEmm"
  },
  {
   "name" : "_ZN7android8hardware8graphics6mapper4V4_022readEmbeddedFromParcelERKNS3_7IMapper23MetadataTypeDescriptionERKNS0_6ParcelEmm"
  },
  {
   "name" : "_ZN7android8hardware8graphics6mapper4V4_07IMapper10getServiceERKNSt3__112basic_stringIcNS5_11char_traitsIcEENS5_9allocatorIcEEEEb"
  },
  {
   "name" : "_ZN7android8hardware8graphics6mapper4V4_07IMapper11linkToDeathERKNS_2spINS0_20hidl_death_recipientEEEm"
  },
  {
   "name" : "_ZN7android8hardware8graphics6mapper4V4_07IMapper12getDebugInfoENSt3__18functionIFvRKNS_4hidl4base4V1_09DebugInfoEEEE"
  },
  {
   "name" : "_ZN7android8hardware8graphics6mapper4V4_07IMapper12getHashChainENSt3__18functionIFvRKNS0_8hidl_vecINS0_10hidl_arrayIhLm32EJEEEEEEEE"
  },
  {
   "name" : "_ZN7android8hardware8graphics6mapper4V4_07IMapper13tryGetServiceERKNSt3__112basic_stringIcNS5_11char_traitsIcEENS5_9allocatorIcEEEEb"
  },
  {
   "name" : "_ZN7android8hardware8graphics6mapper4V4_07IMapper13unlinkToDeathERKNS_2spINS0_20hidl_death_recipientEEE"
  },
  {
   "name" : "_ZN7android8hardware8graphics6mapper4V4_07IMapper14interfaceChainENSt3__18functionIFvRKNS0_8hidl_vecINS0_11hidl_stringEEEEEE"
  },
  {
   "name" : "_ZN7android8hardware8graphics6mapper4V4_07IMapper17registerAsServiceERKNSt3__112basic_stringIcNS5_11char_traitsIcEENS5_9allocatorIcEEEE"
  },
  {
   "name" : "_ZN7android8hardware8graphics6mapper4V4_07IMapper19interfaceDescriptorENSt3__18functionIFvRKNS0_11hidl_stringEEEE"
  },
  {
   "name" : "_ZN7android8hardware8graphics6mapper4V4_07IMapper21notifySyspropsChangedEv"
  },
  {
   "name" : "_ZN7android8hardware8graphics6mapper4V4_07IMapper21setHALInstrumentationEv"
  },
  {
   "name" : "_ZN7android8hardware8graphics6mapper4V4_07IMapper24registerForNotificationsERKNSt3__112basic_stringIcNS5_11char_traitsIcEENS5_9allocatorIcEEEERKNS_2spINS_4hidl7manager4V1_020IServiceNotificationEEE"
  },
  {
   "name" : "_ZN7android8hardware8graphics6mapper4V4_07IMapper4pingEv"
  },
  {
   "name" : "_ZN7android8hardware8graphics6mapper4V4_07IMapper5debugERKNS0_11hidl_handleERKNS0_8hidl_vecINS0_11hidl_stringEEE"
  },
  {
   "name" : "_ZN7android8hardware8graphics6mapper4V4_07IMapper8castFromERKNS_2spINS_4hidl4base4V1_05IBaseEEEb"
  },
  {
   "name" : "_ZN7android8hardware8graphics6mapper4V4_07IMapper8castFromERKNS_2spIS4_EEb"
  },
  {
   "name" : "_ZN7android8hardware8graphics6mapper4V4_08BsMapper13addOnewayTaskENSt3__18functionIFvvEEE"
  },
  {
   "name" : "_ZN7android8hardware8graphics6mapper4V4_08BsMapperC1ENS_2spINS3_7IMapperEEE"
  },
  {
   "name" : "_ZN7android8hardware8graphics6mapper4V4_08BsMapperC2ENS_2spINS3_7IMapperEEE"
  },
  {
   "binding" : "weak",
   "name" : "_ZNKSt3__18functionIFvN7android8hardware7details16HidlInstrumentor20InstrumentationEventEPKcS7_S7_S7_PNS_6vectorIPvNS_9allocatorIS9_EEEEEEclES5_S7_S7_S7_S7_SD_"
  },
  {
   "binding" : "weak",
   "name" : "_ZNSt3__113__tree_removeIPNS_16__tree_node_baseIPvEEEEvT_S5_"
  },
  {
   "binding" : "weak",
   "name" : "_ZNSt3__127__tree_balance_after_insertIPNS_16__tree_node_baseIPvEEEEvT_S5_"
  },
  {
   "binding" : "weak",
   "name" : "_ZNSt3__16__treeINS_12__value_typeINS_12basic_stringIcNS_11char_traitsIcEENS_9allocatorIcEEEENS_8functionIFN7android2spINS9_4hidl4base4V1_05IBaseEEEPvEEEEENS_19__map_value_compareIS7_SJ_NS_4lessIS7_EELb1EEENS5_ISJ_EEE12__find_equalIS7_EERPNS_16__tree_node_baseISG_EERPNS_15__tree_end_nodeIST_EERKT_"
  },
  {
   "binding" : "weak",
   "name" : "_ZNSt3__16__treeINS_12__value_typeINS_12basic_stringIcNS_11char_traitsIcEENS_9allocatorIcEEEENS_8functionIFN7android2spINS9_4hidl4base4V1_05IBaseEEEPvEEEEENS_19__map_value_compareIS7_SJ_NS_4lessIS7_EELb1EEENS5_ISJ_EEE4findIS7_EENS_15__tree_iteratorISJ_PNS_11__tree_nodeISJ_SG_EElEERKT_"
  },
  {
   "binding" : "weak",
   "name" : "_ZNSt3__16__treeINS_12__value_typeINS_12basic_stringIcNS_11char_traitsIcEENS_9allocatorIcEEEENS_8functionIFN7android2spINS9_4hidl4base4V1_05IBaseEEEPvEEEEENS_19__map_value_compareIS7_SJ_NS_4lessIS7_EELb1EEENS5_ISJ_EEE5eraseENS_21__tree_const_iteratorISJ_PNS_11__tree_nodeISJ_SG_EElEE"
  },
  {
   "binding" : "weak",
   "name" : "_ZNSt3__16__treeINS_12__value_typeINS_12basic_stringIcNS_11char_traitsIcEENS_9allocatorIcEEEENS_8functionIFN7android2spINS9_8hardware7IBinderEEEPvEEEEENS_19__map_value_compareIS7_SH_NS_4lessIS7_EELb1EEENS5_ISH_EEE12__find_equalIS7_EERPNS_16__tree_node_baseISE_EERPNS_15__tree_end_nodeISR_EERKT_"
  },
  {
   "binding" : "weak",
   "name" : "_ZNSt3__16__treeINS_12__value_typeINS_12basic_stringIcNS_11char_traitsIcEENS_9allocatorIcEEEENS_8functionIFN7android2spINS9_8hardware7IBinderEEEPvEEEEENS_19__map_value_compareIS7_SH_NS_4lessIS7_EELb1EEENS5_ISH_EEE4findIS7_EENS_15__tree_iteratorISH_PNS_11__tree_nodeISH_SE_EElEERKT_"
  },
  {
   "binding" : "weak",
   "name" : "_ZNSt3__16__treeINS_12__value_typeINS_12basic_stringIcNS_11char_traitsIcEENS_9allocatorIcEEEENS_8functionIFN7android2spINS9_8hardware7IBinderEEEPvEEEEENS_19__map_value_compareIS7_SH_NS_4lessIS7_EELb1EEENS5_ISH_EEE5eraseENS_21__tree_const_iteratorISH_PNS_11__tree_nodeISH_SE_EElEE"
  },
  {
   "binding" : "weak",
   "name" : "_ZNSt3__16vectorIN7android2spINS1_8hardware27hidl_binder_death_recipientEEENS_9allocatorIS5_EEE21__push_back_slow_pathIS5_EEvOT_"
  },
  {
   "binding" : "weak",
   "name" : "_ZNSt3__16vectorINS_8functionIFvN7android8hardware7details16HidlInstrumentor20InstrumentationEventEPKcS8_S8_S8_PNS0_IPvNS_9allocatorIS9_EEEEEEENSA_ISF_EEEC2ERKSH_"
  },
  {
   "binding" : "weak",
   "name" : "_ZNSt3__16vectorIPvNS_9allocatorIS1_EEE21__push_back_slow_pathIS1_EEvOT_"
  },
  {
   "name" : "_ZThn16_N7android8hardware8graphics6mapper4V4_010BpHwMapper15onLastStrongRefEPKv"
  },
  {
   "name" : "_ZThn32_N7android8hardware8graphics6mapper4V4_010BnHwMapperD0Ev"
  },
  {
   "name" : "_ZThn32_N7android8hardware8graphics6mapper4V4_010BnHwMapperD1Ev"
  },
  {
   "name" : "_ZTv0_n24_N7android8hardware8graphics6mapper4V4_010BnHwMapperD0Ev"
  },
  {
   "name" : "_ZTv0_n24_N7android8hardware8graphics6mapper4V4_010BnHwMapperD1Ev"
  },
  {
   "name" : "_ZTv0_n40_N7android8hardware8graphics6mapper4V4_010BpHwMapper15onLastStrongRefEPKv"
  }
 ],
 "elf_objects" :
 [
  {
   "name" : "_ZN7android8hardware8graphics6mapper4V4_07IMapper10descriptorE"
  },
  {
   "name" : "_ZTCN7android8hardware8graphics6mapper4V4_010BnHwMapperE0_NS0_7IBinderE"
  },
  {
   "name" : "_ZTCN7android8hardware8graphics6mapper4V4_010BnHwMapperE0_NS0_9BHwBinderE"
  },
  {
   "name" : "_ZTCN7android8hardware8graphics6mapper4V4_010BnHwMapperE0_NS_4hidl4base4V1_08BnHwBaseE"
  },
  {
   "name" : "_ZTCN7android8hardware8graphics6mapper4V4_010BpHwMapperE0_NS0_11BpInterfaceINS3_7IMapperEEE"
  },
  {
   "name" : "_ZTCN7android8hardware8graphics6mapper4V4_010BpHwMapperE0_NS3_7IMapperE"
  },
  {
   "name" : "_ZTCN7android8hardware8graphics6mapper4V4_010BpHwMapperE0_NS_4hidl4base4V1_05IBaseE"
  },
  {
   "name" : "_ZTCN7android8hardware8graphics6mapper4V4_010BpHwMapperE16_NS0_11BpHwRefBaseE"
  },
  {
   "name" : "_ZTCN7android8hardware8graphics6mapper4V4_010BpHwMapperE8_NS0_10IInterfaceE"
  },
  {
   "name" : "_ZTCN7android8hardware8graphics6mapper4V4_07IMapperE0_NS_4hidl4base4V1_05IBaseE"
  },
  {
   "binding" : "weak",
   "name" : "_ZTCN7android8hardware8graphics6mapper4V4_08BsMapperE0_NS3_7IMapperE"
  },
  {
   "name" : "_ZTTN7android8hardware8graphics6mapper4V4_010BnHwMapperE"
  },
  {
   "name" : "_ZTTN7android8hardware8graphics6mapper4V4_010BpHwMapperE"
  },
  {
   "name" : "_ZTTN7android8hardware8graphics6mapper4V4_07IMapperE"
  },
  {
   "name" : "_ZTVN7android8hardware8graphics6mapper4V4_010BnHwMapperE"
  },
  {
   "name" : "_ZTVN7android8hardware8graphics6mapper4V4_010BpHwMapperE"
  },
  {
   "name" : "_ZTVN7android8hardware8graphics6mapper4V4_07IMapperE"
  },
  {
   "binding" : "weak",
   "name" : "_ZTVN7android8hardware8graphics6mapper4V4_08BsMapperE"
  }
 ],
 "enum_types" : [],
 "function_types" : [],
 "functions" : [],
 "global_vars" : [],
 "lvalue_reference_types" : [],
 "pointer_types" : [],
 "qualified_types" : [],
 "record_types" : [],
 "rvalue_reference_types" : []
}
