{
 "array_types" : [],
 "builtin_types" : [],
 "elf_functions" :
 [
  {
   "binding" : "weak",
   "name" : "_ZN3ndk12BnCInterfaceIN4aidl7android8hardware8security12sharedsecret13ISharedSecretEE8asBinderEv"
  },
  {
   "binding" : "weak",
   "name" : "_ZN3ndk12BpCInterfaceIN4aidl7android8hardware8security12sharedsecret13ISharedSecretEE8asBinderEv"
  },
  {
   "binding" : "weak",
   "name" : "_ZN3ndk38AParcel_readStdVectorParcelableElementIN4aidl7android8hardware8security12sharedsecret22SharedSecretParametersEEEiPK7AParcelPvm"
  },
  {
   "binding" : "weak",
   "name" : "_ZN3ndk39AParcel_writeStdVectorParcelableElementIN4aidl7android8hardware8security12sharedsecret22SharedSecretParametersEEEiP7AParcelPKvm"
  },
  {
   "name" : "_ZN4aidl7android8hardware8security12sharedsecret13ISharedSecret10fromBinderERKN3ndk10SpAIBinderE"
  },
  {
   "name" : "_ZN4aidl7android8hardware8security12sharedsecret13ISharedSecret13writeToParcelEP7AParcelRKNSt3__110shared_ptrIS4_EE"
  },
  {
   "name" : "_ZN4aidl7android8hardware8security12sharedsecret13ISharedSecret14getDefaultImplEv"
  },
  {
   "name" : "_ZN4aidl7android8hardware8security12sharedsecret13ISharedSecret14readFromParcelEPK7AParcelPNSt3__110shared_ptrIS4_EE"
  },
  {
   "name" : "_ZN4aidl7android8hardware8security12sharedsecret13ISharedSecret14setDefaultImplERKNSt3__110shared_ptrIS4_EE"
  },
  {
   "name" : "_ZN4aidl7android8hardware8security12sharedsecret13ISharedSecretC2Ev"
  },
  {
   "name" : "_ZN4aidl7android8hardware8security12sharedsecret13ISharedSecretD0Ev"
  },
  {
   "name" : "_ZN4aidl7android8hardware8security12sharedsecret13ISharedSecretD1Ev"
  },
  {
   "name" : "_ZN4aidl7android8hardware8security12sharedsecret13ISharedSecretD2Ev"
  },
  {
   "name" : "_ZN4aidl7android8hardware8security12sharedsecret14BnSharedSecret12createBinderEv"
  },
  {
   "name" : "_ZN4aidl7android8hardware8security12sharedsecret14BnSharedSecret16getInterfaceHashEPNSt3__112basic_stringIcNS5_11char_traitsIcEENS5_9allocatorIcEEEE"
  },
  {
   "name" : "_ZN4aidl7android8hardware8security12sharedsecret14BnSharedSecret19getInterfaceVersionEPi"
  },
  {
   "name" : "_ZN4aidl7android8hardware8security12sharedsecret14BnSharedSecretC2Ev"
  },
  {
   "name" : "_ZN4aidl7android8hardware8security12sharedsecret14BnSharedSecretD0Ev"
  },
  {
   "name" : "_ZN4aidl7android8hardware8security12sharedsecret14BnSharedSecretD1Ev"
  },
  {
   "name" : "_ZN4aidl7android8hardware8security12sharedsecret14BnSharedSecretD2Ev"
  },
  {
   "name" : "_ZN4aidl7android8hardware8security12sharedsecret14BpSharedSecret16getInterfaceHashEPNSt3__112basic_stringIcNS5_11char_traitsIcEENS5_9allocatorIcEEEE"
  },
  {
   "name" : "_ZN4aidl7android8hardware8security12sharedsecret14BpSharedSecret19computeSharedSecretERKNSt3__16vectorINS3_22SharedSecretParametersENS5_9allocatorIS7_EEEEPNS6_IhNS8_IhEEEE"
  },
  {
   "name" : "_ZN4aidl7android8hardware8security12sharedsecret14BpSharedSecret19getInterfaceVersionEPi"
  },
  {
   "name" : "_ZN4aidl7android8hardware8security12sharedsecret14BpSharedSecret25getSharedSecretParametersEPNS3_22SharedSecretParametersE"
  },
  {
   "name" : "_ZN4aidl7android8hardware8security12sharedsecret14BpSharedSecretC1ERKN3ndk10SpAIBinderE"
  },
  {
   "name" : "_ZN4aidl7android8hardware8security12sharedsecret14BpSharedSecretC2ERKN3ndk10SpAIBinderE"
  },
  {
   "name" : "_ZN4aidl7android8hardware8security12sharedsecret14BpSharedSecretD0Ev"
  },
  {
   "name" : "_ZN4aidl7android8hardware8security12sharedsecret14BpSharedSecretD1Ev"
  },
  {
   "name" : "_ZN4aidl7android8hardware8security12sharedsecret14BpSharedSecretD2Ev"
  },
  {
   "name" : "_ZN4aidl7android8hardware8security12sharedsecret20ISharedSecretDefault16getInterfaceHashEPNSt3__112basic_stringIcNS5_11char_traitsIcEENS5_9allocatorIcEEEE"
  },
  {
   "name" : "_ZN4aidl7android8hardware8security12sharedsecret20ISharedSecretDefault19computeSharedSecretERKNSt3__16vectorINS3_22SharedSecretParametersENS5_9allocatorIS7_EEEEPNS6_IhNS8_IhEEEE"
  },
  {
   "name" : "_ZN4aidl7android8hardware8security12sharedsecret20ISharedSecretDefault19getInterfaceVersionEPi"
  },
  {
   "name" : "_ZN4aidl7android8hardware8security12sharedsecret20ISharedSecretDefault25getSharedSecretParametersEPNS3_22SharedSecretParametersE"
  },
  {
   "name" : "_ZN4aidl7android8hardware8security12sharedsecret20ISharedSecretDefault8asBinderEv"
  },
  {
   "name" : "_ZN4aidl7android8hardware8security12sharedsecret20ISharedSecretDefault8isRemoteEv"
  },
  {
   "name" : "_ZN4aidl7android8hardware8security12sharedsecret22SharedSecretParameters14readFromParcelEPK7AParcel"
  },
  {
   "name" : "_ZNK4aidl7android8hardware8security12sharedsecret22SharedSecretParameters13writeToParcelEP7AParcel"
  },
  {
   "binding" : "weak",
   "name" : "_ZNSt3__110shared_ptrIN4aidl7android8hardware8security12sharedsecret13ISharedSecretEED2Ev"
  },
  {
   "binding" : "weak",
   "name" : "_ZNSt3__120__shared_ptr_pointerIPN3ndk13SharedRefBaseENS_14default_deleteIS2_EENS_9allocatorIS2_EEE16__on_zero_sharedEv"
  },
  {
   "binding" : "weak",
   "name" : "_ZNSt3__120__shared_ptr_pointerIPN3ndk13SharedRefBaseENS_14default_deleteIS2_EENS_9allocatorIS2_EEE21__on_zero_shared_weakEv"
  },
  {
   "binding" : "weak",
   "name" : "_ZNSt3__16vectorIN4aidl7android8hardware8security12sharedsecret22SharedSecretParametersENS_9allocatorIS6_EEE8__appendEm"
  },
  {
   "binding" : "weak",
   "name" : "_ZNSt3__16vectorIaNS_9allocatorIaEEE8__appendEm"
  }
 ],
 "elf_objects" :
 [
  {
   "binding" : "weak",
   "name" : "_ZGVN4aidl7android8hardware8security12sharedsecret13ISharedSecret4hashE"
  },
  {
   "name" : "_ZN4aidl7android8hardware8security12sharedsecret13ISharedSecret10descriptorE"
  },
  {
   "name" : "_ZN4aidl7android8hardware8security12sharedsecret13ISharedSecret12default_implE"
  },
  {
   "name" : "_ZN4aidl7android8hardware8security12sharedsecret13ISharedSecret15KEY_CHECK_LABELE"
  },
  {
   "name" : "_ZN4aidl7android8hardware8security12sharedsecret13ISharedSecret19KEY_AGREEMENT_LABELE"
  },
  {
   "binding" : "weak",
   "name" : "_ZN4aidl7android8hardware8security12sharedsecret13ISharedSecret4hashE"
  },
  {
   "name" : "_ZN4aidl7android8hardware8security12sharedsecret22SharedSecretParameters10descriptorE"
  },
  {
   "binding" : "weak",
   "name" : "_ZTVN3ndk12BnCInterfaceIN4aidl7android8hardware8security12sharedsecret13ISharedSecretEEE"
  },
  {
   "binding" : "weak",
   "name" : "_ZTVN3ndk12BpCInterfaceIN4aidl7android8hardware8security12sharedsecret13ISharedSecretEEE"
  },
  {
   "binding" : "weak",
   "name" : "_ZTVN3ndk13SharedRefBaseE"
  },
  {
   "name" : "_ZTVN4aidl7android8hardware8security12sharedsecret13ISharedSecretE"
  },
  {
   "name" : "_ZTVN4aidl7android8hardware8security12sharedsecret14BnSharedSecretE"
  },
  {
   "name" : "_ZTVN4aidl7android8hardware8security12sharedsecret14BpSharedSecretE"
  },
  {
   "name" : "_ZTVN4aidl7android8hardware8security12sharedsecret20ISharedSecretDefaultE"
  },
  {
   "binding" : "weak",
   "name" : "_ZTVNSt3__120__shared_ptr_pointerIPN3ndk13SharedRefBaseENS_14default_deleteIS2_EENS_9allocatorIS2_EEEE"
  }
 ],
 "enum_types" : [],
 "function_types" : [],
 "functions" : [],
 "global_vars" : [],
 "lvalue_reference_types" : [],
 "pointer_types" : [],
 "qualified_types" : [],
 "record_types" : [],
 "rvalue_reference_types" : []
}
