{
 "array_types" : [],
 "builtin_types" : [],
 "elf_functions" :
 [
  {
   "binding" : "weak",
   "name" : "_ZN3ndk12BnCInterfaceIN4aidl7android6system9keystore216IKeystoreServiceEE8asBinderEv"
  },
  {
   "binding" : "weak",
   "name" : "_ZN3ndk12BnCInterfaceIN4aidl7android6system9keystore218IKeystoreOperationEE8asBinderEv"
  },
  {
   "binding" : "weak",
   "name" : "_ZN3ndk12BnCInterfaceIN4aidl7android6system9keystore222IKeystoreSecurityLevelEE8asBinderEv"
  },
  {
   "binding" : "weak",
   "name" : "_ZN3ndk12BpCInterfaceIN4aidl7android6system9keystore216IKeystoreServiceEE8asBinderEv"
  },
  {
   "binding" : "weak",
   "name" : "_ZN3ndk12BpCInterfaceIN4aidl7android6system9keystore218IKeystoreOperationEE8asBinderEv"
  },
  {
   "binding" : "weak",
   "name" : "_ZN3ndk12BpCInterfaceIN4aidl7android6system9keystore222IKeystoreSecurityLevelEE8asBinderEv"
  },
  {
   "binding" : "weak",
   "name" : "_ZN3ndk38AParcel_readStdVectorParcelableElementIN4aidl7android6system9keystore213AuthorizationEEEiPK7AParcelPvj"
  },
  {
   "binding" : "weak",
   "name" : "_ZN3ndk38AParcel_readStdVectorParcelableElementIN4aidl7android6system9keystore213KeyDescriptorEEEiPK7AParcelPvj"
  },
  {
   "binding" : "weak",
   "name" : "_ZN3ndk38AParcel_readStdVectorParcelableElementIN4aidl7android6system9keystore217AuthenticatorSpecEEEiPK7AParcelPvj"
  },
  {
   "binding" : "weak",
   "name" : "_ZN3ndk38AParcel_readStdVectorParcelableElementIN4aidl7android8hardware8security7keymint12KeyParameterEEEiPK7AParcelPvj"
  },
  {
   "binding" : "weak",
   "name" : "_ZN3ndk39AParcel_writeStdVectorParcelableElementIN4aidl7android6system9keystore213AuthorizationEEEiP7AParcelPKvj"
  },
  {
   "binding" : "weak",
   "name" : "_ZN3ndk39AParcel_writeStdVectorParcelableElementIN4aidl7android6system9keystore213KeyDescriptorEEEiP7AParcelPKvj"
  },
  {
   "binding" : "weak",
   "name" : "_ZN3ndk39AParcel_writeStdVectorParcelableElementIN4aidl7android6system9keystore217AuthenticatorSpecEEEiP7AParcelPKvj"
  },
  {
   "binding" : "weak",
   "name" : "_ZN3ndk39AParcel_writeStdVectorParcelableElementIN4aidl7android8hardware8security7keymint12KeyParameterEEEiP7AParcelPKvj"
  },
  {
   "name" : "_ZN4aidl7android6system9keystore211KeyMetadata14readFromParcelEPK7AParcel"
  },
  {
   "name" : "_ZN4aidl7android6system9keystore213Authorization14readFromParcelEPK7AParcel"
  },
  {
   "name" : "_ZN4aidl7android6system9keystore213KeyDescriptor14readFromParcelEPK7AParcel"
  },
  {
   "name" : "_ZN4aidl7android6system9keystore213KeyParameters14readFromParcelEPK7AParcel"
  },
  {
   "name" : "_ZN4aidl7android6system9keystore216IKeystoreService10fromBinderERKN3ndk10SpAIBinderE"
  },
  {
   "name" : "_ZN4aidl7android6system9keystore216IKeystoreService13writeToParcelEP7AParcelRKNSt3__110shared_ptrIS3_EE"
  },
  {
   "name" : "_ZN4aidl7android6system9keystore216IKeystoreService14getDefaultImplEv"
  },
  {
   "name" : "_ZN4aidl7android6system9keystore216IKeystoreService14readFromParcelEPK7AParcelPNSt3__110shared_ptrIS3_EE"
  },
  {
   "name" : "_ZN4aidl7android6system9keystore216IKeystoreService14setDefaultImplERKNSt3__110shared_ptrIS3_EE"
  },
  {
   "name" : "_ZN4aidl7android6system9keystore216IKeystoreServiceC2Ev"
  },
  {
   "name" : "_ZN4aidl7android6system9keystore216IKeystoreServiceD0Ev"
  },
  {
   "name" : "_ZN4aidl7android6system9keystore216IKeystoreServiceD1Ev"
  },
  {
   "name" : "_ZN4aidl7android6system9keystore216IKeystoreServiceD2Ev"
  },
  {
   "name" : "_ZN4aidl7android6system9keystore216KeyEntryResponse14readFromParcelEPK7AParcel"
  },
  {
   "name" : "_ZN4aidl7android6system9keystore217AuthenticatorSpec14readFromParcelEPK7AParcel"
  },
  {
   "name" : "_ZN4aidl7android6system9keystore217BnKeystoreService12createBinderEv"
  },
  {
   "name" : "_ZN4aidl7android6system9keystore217BnKeystoreService16getInterfaceHashEPNSt3__112basic_stringIcNS4_11char_traitsIcEENS4_9allocatorIcEEEE"
  },
  {
   "name" : "_ZN4aidl7android6system9keystore217BnKeystoreService19getInterfaceVersionEPi"
  },
  {
   "name" : "_ZN4aidl7android6system9keystore217BnKeystoreServiceC2Ev"
  },
  {
   "name" : "_ZN4aidl7android6system9keystore217BnKeystoreServiceD0Ev"
  },
  {
   "name" : "_ZN4aidl7android6system9keystore217BnKeystoreServiceD1Ev"
  },
  {
   "name" : "_ZN4aidl7android6system9keystore217BnKeystoreServiceD2Ev"
  },
  {
   "name" : "_ZN4aidl7android6system9keystore217BpKeystoreService11getKeyEntryERKNS2_13KeyDescriptorEPNS2_16KeyEntryResponseE"
  },
  {
   "name" : "_ZN4aidl7android6system9keystore217BpKeystoreService11listEntriesENS2_6DomainExPNSt3__16vectorINS2_13KeyDescriptorENS5_9allocatorIS7_EEEE"
  },
  {
   "name" : "_ZN4aidl7android6system9keystore217BpKeystoreService16getInterfaceHashEPNSt3__112basic_stringIcNS4_11char_traitsIcEENS4_9allocatorIcEEEE"
  },
  {
   "name" : "_ZN4aidl7android6system9keystore217BpKeystoreService16getSecurityLevelENS0_8hardware8security7keymint13SecurityLevelEPNSt3__110shared_ptrINS2_22IKeystoreSecurityLevelEEE"
  },
  {
   "name" : "_ZN4aidl7android6system9keystore217BpKeystoreService18updateSubcomponentERKNS2_13KeyDescriptorERKNSt3__18optionalINS7_6vectorIhNS7_9allocatorIhEEEEEESF_"
  },
  {
   "name" : "_ZN4aidl7android6system9keystore217BpKeystoreService19getInterfaceVersionEPi"
  },
  {
   "name" : "_ZN4aidl7android6system9keystore217BpKeystoreService5grantERKNS2_13KeyDescriptorEiiPS4_"
  },
  {
   "name" : "_ZN4aidl7android6system9keystore217BpKeystoreService7ungrantERKNS2_13KeyDescriptorEi"
  },
  {
   "name" : "_ZN4aidl7android6system9keystore217BpKeystoreService9deleteKeyERKNS2_13KeyDescriptorE"
  },
  {
   "name" : "_ZN4aidl7android6system9keystore217BpKeystoreServiceC1ERKN3ndk10SpAIBinderE"
  },
  {
   "name" : "_ZN4aidl7android6system9keystore217BpKeystoreServiceC2ERKN3ndk10SpAIBinderE"
  },
  {
   "name" : "_ZN4aidl7android6system9keystore217BpKeystoreServiceD0Ev"
  },
  {
   "name" : "_ZN4aidl7android6system9keystore217BpKeystoreServiceD1Ev"
  },
  {
   "name" : "_ZN4aidl7android6system9keystore217BpKeystoreServiceD2Ev"
  },
  {
   "name" : "_ZN4aidl7android6system9keystore218IKeystoreOperation10fromBinderERKN3ndk10SpAIBinderE"
  },
  {
   "name" : "_ZN4aidl7android6system9keystore218IKeystoreOperation13writeToParcelEP7AParcelRKNSt3__110shared_ptrIS3_EE"
  },
  {
   "name" : "_ZN4aidl7android6system9keystore218IKeystoreOperation14getDefaultImplEv"
  },
  {
   "name" : "_ZN4aidl7android6system9keystore218IKeystoreOperation14readFromParcelEPK7AParcelPNSt3__110shared_ptrIS3_EE"
  },
  {
   "name" : "_ZN4aidl7android6system9keystore218IKeystoreOperation14setDefaultImplERKNSt3__110shared_ptrIS3_EE"
  },
  {
   "name" : "_ZN4aidl7android6system9keystore218IKeystoreOperationC2Ev"
  },
  {
   "name" : "_ZN4aidl7android6system9keystore218IKeystoreOperationD0Ev"
  },
  {
   "name" : "_ZN4aidl7android6system9keystore218IKeystoreOperationD1Ev"
  },
  {
   "name" : "_ZN4aidl7android6system9keystore218IKeystoreOperationD2Ev"
  },
  {
   "name" : "_ZN4aidl7android6system9keystore218OperationChallenge14readFromParcelEPK7AParcel"
  },
  {
   "name" : "_ZN4aidl7android6system9keystore219BnKeystoreOperation12createBinderEv"
  },
  {
   "name" : "_ZN4aidl7android6system9keystore219BnKeystoreOperation16getInterfaceHashEPNSt3__112basic_stringIcNS4_11char_traitsIcEENS4_9allocatorIcEEEE"
  },
  {
   "name" : "_ZN4aidl7android6system9keystore219BnKeystoreOperation19getInterfaceVersionEPi"
  },
  {
   "name" : "_ZN4aidl7android6system9keystore219BnKeystoreOperationC2Ev"
  },
  {
   "name" : "_ZN4aidl7android6system9keystore219BnKeystoreOperationD0Ev"
  },
  {
   "name" : "_ZN4aidl7android6system9keystore219BnKeystoreOperationD1Ev"
  },
  {
   "name" : "_ZN4aidl7android6system9keystore219BnKeystoreOperationD2Ev"
  },
  {
   "name" : "_ZN4aidl7android6system9keystore219BpKeystoreOperation16getInterfaceHashEPNSt3__112basic_stringIcNS4_11char_traitsIcEENS4_9allocatorIcEEEE"
  },
  {
   "name" : "_ZN4aidl7android6system9keystore219BpKeystoreOperation19getInterfaceVersionEPi"
  },
  {
   "name" : "_ZN4aidl7android6system9keystore219BpKeystoreOperation5abortEv"
  },
  {
   "name" : "_ZN4aidl7android6system9keystore219BpKeystoreOperation6finishERKNSt3__18optionalINS4_6vectorIhNS4_9allocatorIhEEEEEESC_PSA_"
  },
  {
   "name" : "_ZN4aidl7android6system9keystore219BpKeystoreOperation6updateERKNSt3__16vectorIhNS4_9allocatorIhEEEEPNS4_8optionalIS8_EE"
  },
  {
   "name" : "_ZN4aidl7android6system9keystore219BpKeystoreOperation9updateAadERKNSt3__16vectorIhNS4_9allocatorIhEEEE"
  },
  {
   "name" : "_ZN4aidl7android6system9keystore219BpKeystoreOperationC1ERKN3ndk10SpAIBinderE"
  },
  {
   "name" : "_ZN4aidl7android6system9keystore219BpKeystoreOperationC2ERKN3ndk10SpAIBinderE"
  },
  {
   "name" : "_ZN4aidl7android6system9keystore219BpKeystoreOperationD0Ev"
  },
  {
   "name" : "_ZN4aidl7android6system9keystore219BpKeystoreOperationD1Ev"
  },
  {
   "name" : "_ZN4aidl7android6system9keystore219BpKeystoreOperationD2Ev"
  },
  {
   "name" : "_ZN4aidl7android6system9keystore222IKeystoreSecurityLevel10fromBinderERKN3ndk10SpAIBinderE"
  },
  {
   "name" : "_ZN4aidl7android6system9keystore222IKeystoreSecurityLevel13writeToParcelEP7AParcelRKNSt3__110shared_ptrIS3_EE"
  },
  {
   "name" : "_ZN4aidl7android6system9keystore222IKeystoreSecurityLevel14getDefaultImplEv"
  },
  {
   "name" : "_ZN4aidl7android6system9keystore222IKeystoreSecurityLevel14readFromParcelEPK7AParcelPNSt3__110shared_ptrIS3_EE"
  },
  {
   "name" : "_ZN4aidl7android6system9keystore222IKeystoreSecurityLevel14setDefaultImplERKNSt3__110shared_ptrIS3_EE"
  },
  {
   "name" : "_ZN4aidl7android6system9keystore222IKeystoreSecurityLevelC2Ev"
  },
  {
   "name" : "_ZN4aidl7android6system9keystore222IKeystoreSecurityLevelD0Ev"
  },
  {
   "name" : "_ZN4aidl7android6system9keystore222IKeystoreSecurityLevelD1Ev"
  },
  {
   "name" : "_ZN4aidl7android6system9keystore222IKeystoreSecurityLevelD2Ev"
  },
  {
   "name" : "_ZN4aidl7android6system9keystore223BnKeystoreSecurityLevel12createBinderEv"
  },
  {
   "name" : "_ZN4aidl7android6system9keystore223BnKeystoreSecurityLevel16getInterfaceHashEPNSt3__112basic_stringIcNS4_11char_traitsIcEENS4_9allocatorIcEEEE"
  },
  {
   "name" : "_ZN4aidl7android6system9keystore223BnKeystoreSecurityLevel19getInterfaceVersionEPi"
  },
  {
   "name" : "_ZN4aidl7android6system9keystore223BnKeystoreSecurityLevelC2Ev"
  },
  {
   "name" : "_ZN4aidl7android6system9keystore223BnKeystoreSecurityLevelD0Ev"
  },
  {
   "name" : "_ZN4aidl7android6system9keystore223BnKeystoreSecurityLevelD1Ev"
  },
  {
   "name" : "_ZN4aidl7android6system9keystore223BnKeystoreSecurityLevelD2Ev"
  },
  {
   "name" : "_ZN4aidl7android6system9keystore223BpKeystoreSecurityLevel11generateKeyERKNS2_13KeyDescriptorERKNSt3__18optionalIS4_EERKNS7_6vectorINS0_8hardware8security7keymint12KeyParameterENS7_9allocatorISG_EEEEiRKNSC_IhNSH_IhEEEEPNS2_11KeyMetadataE"
  },
  {
   "name" : "_ZN4aidl7android6system9keystore223BpKeystoreSecurityLevel15createOperationERKNS2_13KeyDescriptorERKNSt3__16vectorINS0_8hardware8security7keymint12KeyParameterENS7_9allocatorISC_EEEEbPNS2_23CreateOperationResponseE"
  },
  {
   "name" : "_ZN4aidl7android6system9keystore223BpKeystoreSecurityLevel16getInterfaceHashEPNSt3__112basic_stringIcNS4_11char_traitsIcEENS4_9allocatorIcEEEE"
  },
  {
   "name" : "_ZN4aidl7android6system9keystore223BpKeystoreSecurityLevel16importWrappedKeyERKNS2_13KeyDescriptorES6_RKNSt3__18optionalINS7_6vectorIhNS7_9allocatorIhEEEEEERKNS9_INS0_8hardware8security7keymint12KeyParameterENSA_ISJ_EEEERKNS9_INS2_17AuthenticatorSpecENSA_ISO_EEEEPNS2_11KeyMetadataE"
  },
  {
   "name" : "_ZN4aidl7android6system9keystore223BpKeystoreSecurityLevel19getInterfaceVersionEPi"
  },
  {
   "name" : "_ZN4aidl7android6system9keystore223BpKeystoreSecurityLevel28convertStorageKeyToEphemeralERKNS2_13KeyDescriptorEPNS2_27EphemeralStorageKeyResponseE"
  },
  {
   "name" : "_ZN4aidl7android6system9keystore223BpKeystoreSecurityLevel9deleteKeyERKNS2_13KeyDescriptorE"
  },
  {
   "name" : "_ZN4aidl7android6system9keystore223BpKeystoreSecurityLevel9importKeyERKNS2_13KeyDescriptorERKNSt3__18optionalIS4_EERKNS7_6vectorINS0_8hardware8security7keymint12KeyParameterENS7_9allocatorISG_EEEEiRKNSC_IhNSH_IhEEEEPNS2_11KeyMetadataE"
  },
  {
   "name" : "_ZN4aidl7android6system9keystore223BpKeystoreSecurityLevelC1ERKN3ndk10SpAIBinderE"
  },
  {
   "name" : "_ZN4aidl7android6system9keystore223BpKeystoreSecurityLevelC2ERKN3ndk10SpAIBinderE"
  },
  {
   "name" : "_ZN4aidl7android6system9keystore223BpKeystoreSecurityLevelD0Ev"
  },
  {
   "name" : "_ZN4aidl7android6system9keystore223BpKeystoreSecurityLevelD1Ev"
  },
  {
   "name" : "_ZN4aidl7android6system9keystore223BpKeystoreSecurityLevelD2Ev"
  },
  {
   "name" : "_ZN4aidl7android6system9keystore223CreateOperationResponse14readFromParcelEPK7AParcel"
  },
  {
   "name" : "_ZN4aidl7android6system9keystore223IKeystoreServiceDefault11getKeyEntryERKNS2_13KeyDescriptorEPNS2_16KeyEntryResponseE"
  },
  {
   "name" : "_ZN4aidl7android6system9keystore223IKeystoreServiceDefault11listEntriesENS2_6DomainExPNSt3__16vectorINS2_13KeyDescriptorENS5_9allocatorIS7_EEEE"
  },
  {
   "name" : "_ZN4aidl7android6system9keystore223IKeystoreServiceDefault16getInterfaceHashEPNSt3__112basic_stringIcNS4_11char_traitsIcEENS4_9allocatorIcEEEE"
  },
  {
   "name" : "_ZN4aidl7android6system9keystore223IKeystoreServiceDefault16getSecurityLevelENS0_8hardware8security7keymint13SecurityLevelEPNSt3__110shared_ptrINS2_22IKeystoreSecurityLevelEEE"
  },
  {
   "name" : "_ZN4aidl7android6system9keystore223IKeystoreServiceDefault18updateSubcomponentERKNS2_13KeyDescriptorERKNSt3__18optionalINS7_6vectorIhNS7_9allocatorIhEEEEEESF_"
  },
  {
   "name" : "_ZN4aidl7android6system9keystore223IKeystoreServiceDefault19getInterfaceVersionEPi"
  },
  {
   "name" : "_ZN4aidl7android6system9keystore223IKeystoreServiceDefault5grantERKNS2_13KeyDescriptorEiiPS4_"
  },
  {
   "name" : "_ZN4aidl7android6system9keystore223IKeystoreServiceDefault7ungrantERKNS2_13KeyDescriptorEi"
  },
  {
   "name" : "_ZN4aidl7android6system9keystore223IKeystoreServiceDefault8asBinderEv"
  },
  {
   "name" : "_ZN4aidl7android6system9keystore223IKeystoreServiceDefault8isRemoteEv"
  },
  {
   "name" : "_ZN4aidl7android6system9keystore223IKeystoreServiceDefault9deleteKeyERKNS2_13KeyDescriptorE"
  },
  {
   "name" : "_ZN4aidl7android6system9keystore225IKeystoreOperationDefault16getInterfaceHashEPNSt3__112basic_stringIcNS4_11char_traitsIcEENS4_9allocatorIcEEEE"
  },
  {
   "name" : "_ZN4aidl7android6system9keystore225IKeystoreOperationDefault19getInterfaceVersionEPi"
  },
  {
   "name" : "_ZN4aidl7android6system9keystore225IKeystoreOperationDefault5abortEv"
  },
  {
   "name" : "_ZN4aidl7android6system9keystore225IKeystoreOperationDefault6finishERKNSt3__18optionalINS4_6vectorIhNS4_9allocatorIhEEEEEESC_PSA_"
  },
  {
   "name" : "_ZN4aidl7android6system9keystore225IKeystoreOperationDefault6updateERKNSt3__16vectorIhNS4_9allocatorIhEEEEPNS4_8optionalIS8_EE"
  },
  {
   "name" : "_ZN4aidl7android6system9keystore225IKeystoreOperationDefault8asBinderEv"
  },
  {
   "name" : "_ZN4aidl7android6system9keystore225IKeystoreOperationDefault8isRemoteEv"
  },
  {
   "name" : "_ZN4aidl7android6system9keystore225IKeystoreOperationDefault9updateAadERKNSt3__16vectorIhNS4_9allocatorIhEEEE"
  },
  {
   "name" : "_ZN4aidl7android6system9keystore227EphemeralStorageKeyResponse14readFromParcelEPK7AParcel"
  },
  {
   "name" : "_ZN4aidl7android6system9keystore229IKeystoreSecurityLevelDefault11generateKeyERKNS2_13KeyDescriptorERKNSt3__18optionalIS4_EERKNS7_6vectorINS0_8hardware8security7keymint12KeyParameterENS7_9allocatorISG_EEEEiRKNSC_IhNSH_IhEEEEPNS2_11KeyMetadataE"
  },
  {
   "name" : "_ZN4aidl7android6system9keystore229IKeystoreSecurityLevelDefault15createOperationERKNS2_13KeyDescriptorERKNSt3__16vectorINS0_8hardware8security7keymint12KeyParameterENS7_9allocatorISC_EEEEbPNS2_23CreateOperationResponseE"
  },
  {
   "name" : "_ZN4aidl7android6system9keystore229IKeystoreSecurityLevelDefault16getInterfaceHashEPNSt3__112basic_stringIcNS4_11char_traitsIcEENS4_9allocatorIcEEEE"
  },
  {
   "name" : "_ZN4aidl7android6system9keystore229IKeystoreSecurityLevelDefault16importWrappedKeyERKNS2_13KeyDescriptorES6_RKNSt3__18optionalINS7_6vectorIhNS7_9allocatorIhEEEEEERKNS9_INS0_8hardware8security7keymint12KeyParameterENSA_ISJ_EEEERKNS9_INS2_17AuthenticatorSpecENSA_ISO_EEEEPNS2_11KeyMetadataE"
  },
  {
   "name" : "_ZN4aidl7android6system9keystore229IKeystoreSecurityLevelDefault19getInterfaceVersionEPi"
  },
  {
   "name" : "_ZN4aidl7android6system9keystore229IKeystoreSecurityLevelDefault28convertStorageKeyToEphemeralERKNS2_13KeyDescriptorEPNS2_27EphemeralStorageKeyResponseE"
  },
  {
   "name" : "_ZN4aidl7android6system9keystore229IKeystoreSecurityLevelDefault8asBinderEv"
  },
  {
   "name" : "_ZN4aidl7android6system9keystore229IKeystoreSecurityLevelDefault8isRemoteEv"
  },
  {
   "name" : "_ZN4aidl7android6system9keystore229IKeystoreSecurityLevelDefault9deleteKeyERKNS2_13KeyDescriptorE"
  },
  {
   "name" : "_ZN4aidl7android6system9keystore229IKeystoreSecurityLevelDefault9importKeyERKNS2_13KeyDescriptorERKNSt3__18optionalIS4_EERKNS7_6vectorINS0_8hardware8security7keymint12KeyParameterENS7_9allocatorISG_EEEEiRKNSC_IhNSH_IhEEEEPNS2_11KeyMetadataE"
  },
  {
   "name" : "_ZNK4aidl7android6system9keystore211KeyMetadata13writeToParcelEP7AParcel"
  },
  {
   "name" : "_ZNK4aidl7android6system9keystore213Authorization13writeToParcelEP7AParcel"
  },
  {
   "name" : "_ZNK4aidl7android6system9keystore213KeyDescriptor13writeToParcelEP7AParcel"
  },
  {
   "name" : "_ZNK4aidl7android6system9keystore213KeyParameters13writeToParcelEP7AParcel"
  },
  {
   "name" : "_ZNK4aidl7android6system9keystore216KeyEntryResponse13writeToParcelEP7AParcel"
  },
  {
   "name" : "_ZNK4aidl7android6system9keystore217AuthenticatorSpec13writeToParcelEP7AParcel"
  },
  {
   "name" : "_ZNK4aidl7android6system9keystore218OperationChallenge13writeToParcelEP7AParcel"
  },
  {
   "name" : "_ZNK4aidl7android6system9keystore223CreateOperationResponse13writeToParcelEP7AParcel"
  },
  {
   "name" : "_ZNK4aidl7android6system9keystore227EphemeralStorageKeyResponse13writeToParcelEP7AParcel"
  },
  {
   "binding" : "weak",
   "name" : "_ZNSt3__110shared_ptrIN4aidl7android6system9keystore216IKeystoreServiceEED2Ev"
  },
  {
   "binding" : "weak",
   "name" : "_ZNSt3__110shared_ptrIN4aidl7android6system9keystore218IKeystoreOperationEED2Ev"
  },
  {
   "binding" : "weak",
   "name" : "_ZNSt3__110shared_ptrIN4aidl7android6system9keystore222IKeystoreSecurityLevelEED2Ev"
  },
  {
   "binding" : "weak",
   "name" : "_ZNSt3__120__shared_ptr_pointerIPN3ndk13SharedRefBaseENS_14default_deleteIS2_EENS_9allocatorIS2_EEE16__on_zero_sharedEv"
  },
  {
   "binding" : "weak",
   "name" : "_ZNSt3__120__shared_ptr_pointerIPN3ndk13SharedRefBaseENS_14default_deleteIS2_EENS_9allocatorIS2_EEE21__on_zero_shared_weakEv"
  },
  {
   "binding" : "weak",
   "name" : "_ZNSt3__16vectorIN4aidl7android6system9keystore213AuthorizationENS_9allocatorIS5_EEE8__appendEj"
  },
  {
   "binding" : "weak",
   "name" : "_ZNSt3__16vectorIN4aidl7android6system9keystore213KeyDescriptorENS_9allocatorIS5_EEE8__appendEj"
  },
  {
   "binding" : "weak",
   "name" : "_ZNSt3__16vectorIN4aidl7android6system9keystore217AuthenticatorSpecENS_9allocatorIS5_EEE8__appendEj"
  },
  {
   "binding" : "weak",
   "name" : "_ZNSt3__16vectorIN4aidl7android8hardware8security7keymint12KeyParameterENS_9allocatorIS6_EEE8__appendEj"
  },
  {
   "binding" : "weak",
   "name" : "_ZNSt3__16vectorIaNS_9allocatorIaEEE8__appendEj"
  }
 ],
 "elf_objects" :
 [
  {
   "binding" : "weak",
   "name" : "_ZGVN4aidl7android6system9keystore216IKeystoreService4hashE"
  },
  {
   "binding" : "weak",
   "name" : "_ZGVN4aidl7android6system9keystore218IKeystoreOperation4hashE"
  },
  {
   "binding" : "weak",
   "name" : "_ZGVN4aidl7android6system9keystore222IKeystoreSecurityLevel4hashE"
  },
  {
   "name" : "_ZN4aidl7android6system9keystore211KeyMetadata10descriptorE"
  },
  {
   "name" : "_ZN4aidl7android6system9keystore213Authorization10descriptorE"
  },
  {
   "name" : "_ZN4aidl7android6system9keystore213KeyDescriptor10descriptorE"
  },
  {
   "name" : "_ZN4aidl7android6system9keystore213KeyParameters10descriptorE"
  },
  {
   "name" : "_ZN4aidl7android6system9keystore216IKeystoreService10descriptorE"
  },
  {
   "name" : "_ZN4aidl7android6system9keystore216IKeystoreService12default_implE"
  },
  {
   "binding" : "weak",
   "name" : "_ZN4aidl7android6system9keystore216IKeystoreService4hashE"
  },
  {
   "name" : "_ZN4aidl7android6system9keystore216KeyEntryResponse10descriptorE"
  },
  {
   "name" : "_ZN4aidl7android6system9keystore217AuthenticatorSpec10descriptorE"
  },
  {
   "name" : "_ZN4aidl7android6system9keystore218IKeystoreOperation10descriptorE"
  },
  {
   "name" : "_ZN4aidl7android6system9keystore218IKeystoreOperation12default_implE"
  },
  {
   "binding" : "weak",
   "name" : "_ZN4aidl7android6system9keystore218IKeystoreOperation4hashE"
  },
  {
   "name" : "_ZN4aidl7android6system9keystore218OperationChallenge10descriptorE"
  },
  {
   "name" : "_ZN4aidl7android6system9keystore222IKeystoreSecurityLevel10descriptorE"
  },
  {
   "name" : "_ZN4aidl7android6system9keystore222IKeystoreSecurityLevel12default_implE"
  },
  {
   "binding" : "weak",
   "name" : "_ZN4aidl7android6system9keystore222IKeystoreSecurityLevel4hashE"
  },
  {
   "name" : "_ZN4aidl7android6system9keystore223CreateOperationResponse10descriptorE"
  },
  {
   "name" : "_ZN4aidl7android6system9keystore227EphemeralStorageKeyResponse10descriptorE"
  },
  {
   "binding" : "weak",
   "name" : "_ZTVN3ndk12BnCInterfaceIN4aidl7android6system9keystore216IKeystoreServiceEEE"
  },
  {
   "binding" : "weak",
   "name" : "_ZTVN3ndk12BnCInterfaceIN4aidl7android6system9keystore218IKeystoreOperationEEE"
  },
  {
   "binding" : "weak",
   "name" : "_ZTVN3ndk12BnCInterfaceIN4aidl7android6system9keystore222IKeystoreSecurityLevelEEE"
  },
  {
   "binding" : "weak",
   "name" : "_ZTVN3ndk12BpCInterfaceIN4aidl7android6system9keystore216IKeystoreServiceEEE"
  },
  {
   "binding" : "weak",
   "name" : "_ZTVN3ndk12BpCInterfaceIN4aidl7android6system9keystore218IKeystoreOperationEEE"
  },
  {
   "binding" : "weak",
   "name" : "_ZTVN3ndk12BpCInterfaceIN4aidl7android6system9keystore222IKeystoreSecurityLevelEEE"
  },
  {
   "binding" : "weak",
   "name" : "_ZTVN3ndk13SharedRefBaseE"
  },
  {
   "name" : "_ZTVN4aidl7android6system9keystore216IKeystoreServiceE"
  },
  {
   "name" : "_ZTVN4aidl7android6system9keystore217BnKeystoreServiceE"
  },
  {
   "name" : "_ZTVN4aidl7android6system9keystore217BpKeystoreServiceE"
  },
  {
   "name" : "_ZTVN4aidl7android6system9keystore218IKeystoreOperationE"
  },
  {
   "name" : "_ZTVN4aidl7android6system9keystore219BnKeystoreOperationE"
  },
  {
   "name" : "_ZTVN4aidl7android6system9keystore219BpKeystoreOperationE"
  },
  {
   "name" : "_ZTVN4aidl7android6system9keystore222IKeystoreSecurityLevelE"
  },
  {
   "name" : "_ZTVN4aidl7android6system9keystore223BnKeystoreSecurityLevelE"
  },
  {
   "name" : "_ZTVN4aidl7android6system9keystore223BpKeystoreSecurityLevelE"
  },
  {
   "name" : "_ZTVN4aidl7android6system9keystore223IKeystoreServiceDefaultE"
  },
  {
   "name" : "_ZTVN4aidl7android6system9keystore225IKeystoreOperationDefaultE"
  },
  {
   "name" : "_ZTVN4aidl7android6system9keystore229IKeystoreSecurityLevelDefaultE"
  },
  {
   "binding" : "weak",
   "name" : "_ZTVNSt3__120__shared_ptr_pointerIPN3ndk13SharedRefBaseENS_14default_deleteIS2_EENS_9allocatorIS2_EEEE"
  }
 ],
 "enum_types" : [],
 "function_types" : [],
 "functions" : [],
 "global_vars" : [],
 "lvalue_reference_types" : [],
 "pointer_types" : [],
 "qualified_types" : [],
 "record_types" : [],
 "rvalue_reference_types" : []
}
