{
 "array_types" : [],
 "builtin_types" : [],
 "elf_functions" :
 [
  {
   "binding" : "weak",
   "name" : "_ZN7android2spINS_4hidl4base4V1_05IBaseEED2Ev"
  },
  {
   "binding" : "weak",
   "name" : "_ZN7android2spINS_4hidl6memory4V1_07IMemoryEEaSEOS5_"
  },
  {
   "name" : "_ZN7android4hidl6memory4V1_010BnHwMapper10onTransactEjRKNS_8hardware6ParcelEPS5_jNSt3__18functionIFvRS5_EEE"
  },
  {
   "name" : "_ZN7android4hidl6memory4V1_010BnHwMapper12getDebugInfoENSt3__18functionIFvRKNS0_4base4V1_09DebugInfoEEEE"
  },
  {
   "name" : "_ZN7android4hidl6memory4V1_010BnHwMapper15_hidl_mapMemoryEPNS0_4base4V1_08BnHwBaseERKNS_8hardware6ParcelEPS9_NSt3__18functionIFvRS9_EEE"
  },
  {
   "name" : "_ZN7android4hidl6memory4V1_010BnHwMapper4pingEv"
  },
  {
   "name" : "_ZN7android4hidl6memory4V1_010BnHwMapperC1ERKNS_2spINS2_7IMapperEEE"
  },
  {
   "name" : "_ZN7android4hidl6memory4V1_010BnHwMapperC2ERKNS_2spINS2_7IMapperEEE"
  },
  {
   "name" : "_ZN7android4hidl6memory4V1_010BnHwMapperD0Ev"
  },
  {
   "name" : "_ZN7android4hidl6memory4V1_010BnHwMapperD1Ev"
  },
  {
   "name" : "_ZN7android4hidl6memory4V1_010BnHwMapperD2Ev"
  },
  {
   "name" : "_ZN7android4hidl6memory4V1_010BnHwMemory10_hidl_readEPNS0_4base4V1_08BnHwBaseERKNS_8hardware6ParcelEPS9_NSt3__18functionIFvRS9_EEE"
  },
  {
   "name" : "_ZN7android4hidl6memory4V1_010BnHwMemory10onTransactEjRKNS_8hardware6ParcelEPS5_jNSt3__18functionIFvRS5_EEE"
  },
  {
   "name" : "_ZN7android4hidl6memory4V1_010BnHwMemory12_hidl_commitEPNS0_4base4V1_08BnHwBaseERKNS_8hardware6ParcelEPS9_NSt3__18functionIFvRS9_EEE"
  },
  {
   "name" : "_ZN7android4hidl6memory4V1_010BnHwMemory12_hidl_updateEPNS0_4base4V1_08BnHwBaseERKNS_8hardware6ParcelEPS9_NSt3__18functionIFvRS9_EEE"
  },
  {
   "name" : "_ZN7android4hidl6memory4V1_010BnHwMemory12getDebugInfoENSt3__18functionIFvRKNS0_4base4V1_09DebugInfoEEEE"
  },
  {
   "name" : "_ZN7android4hidl6memory4V1_010BnHwMemory13_hidl_getSizeEPNS0_4base4V1_08BnHwBaseERKNS_8hardware6ParcelEPS9_NSt3__18functionIFvRS9_EEE"
  },
  {
   "name" : "_ZN7android4hidl6memory4V1_010BnHwMemory15_hidl_readRangeEPNS0_4base4V1_08BnHwBaseERKNS_8hardware6ParcelEPS9_NSt3__18functionIFvRS9_EEE"
  },
  {
   "name" : "_ZN7android4hidl6memory4V1_010BnHwMemory16_hidl_getPointerEPNS0_4base4V1_08BnHwBaseERKNS_8hardware6ParcelEPS9_NSt3__18functionIFvRS9_EEE"
  },
  {
   "name" : "_ZN7android4hidl6memory4V1_010BnHwMemory17_hidl_updateRangeEPNS0_4base4V1_08BnHwBaseERKNS_8hardware6ParcelEPS9_NSt3__18functionIFvRS9_EEE"
  },
  {
   "name" : "_ZN7android4hidl6memory4V1_010BnHwMemory4pingEv"
  },
  {
   "name" : "_ZN7android4hidl6memory4V1_010BnHwMemoryC1ERKNS_2spINS2_7IMemoryEEE"
  },
  {
   "name" : "_ZN7android4hidl6memory4V1_010BnHwMemoryC2ERKNS_2spINS2_7IMemoryEEE"
  },
  {
   "name" : "_ZN7android4hidl6memory4V1_010BnHwMemoryD0Ev"
  },
  {
   "name" : "_ZN7android4hidl6memory4V1_010BnHwMemoryD1Ev"
  },
  {
   "name" : "_ZN7android4hidl6memory4V1_010BnHwMemoryD2Ev"
  },
  {
   "name" : "_ZN7android4hidl6memory4V1_010BpHwMapper11linkToDeathERKNS_2spINS_8hardware20hidl_death_recipientEEEy"
  },
  {
   "name" : "_ZN7android4hidl6memory4V1_010BpHwMapper12getDebugInfoENSt3__18functionIFvRKNS0_4base4V1_09DebugInfoEEEE"
  },
  {
   "name" : "_ZN7android4hidl6memory4V1_010BpHwMapper12getHashChainENSt3__18functionIFvRKNS_8hardware8hidl_vecINS6_10hidl_arrayIhLj32EJEEEEEEEE"
  },
  {
   "name" : "_ZN7android4hidl6memory4V1_010BpHwMapper13unlinkToDeathERKNS_2spINS_8hardware20hidl_death_recipientEEE"
  },
  {
   "name" : "_ZN7android4hidl6memory4V1_010BpHwMapper14interfaceChainENSt3__18functionIFvRKNS_8hardware8hidl_vecINS6_11hidl_stringEEEEEE"
  },
  {
   "name" : "_ZN7android4hidl6memory4V1_010BpHwMapper15_hidl_mapMemoryEPNS_8hardware10IInterfaceEPNS4_7details16HidlInstrumentorERKNS4_11hidl_memoryE"
  },
  {
   "name" : "_ZN7android4hidl6memory4V1_010BpHwMapper15onLastStrongRefEPKv"
  },
  {
   "name" : "_ZN7android4hidl6memory4V1_010BpHwMapper19interfaceDescriptorENSt3__18functionIFvRKNS_8hardware11hidl_stringEEEE"
  },
  {
   "name" : "_ZN7android4hidl6memory4V1_010BpHwMapper21notifySyspropsChangedEv"
  },
  {
   "name" : "_ZN7android4hidl6memory4V1_010BpHwMapper21setHALInstrumentationEv"
  },
  {
   "name" : "_ZN7android4hidl6memory4V1_010BpHwMapper4pingEv"
  },
  {
   "name" : "_ZN7android4hidl6memory4V1_010BpHwMapper5debugERKNS_8hardware11hidl_handleERKNS4_8hidl_vecINS4_11hidl_stringEEE"
  },
  {
   "name" : "_ZN7android4hidl6memory4V1_010BpHwMapper9mapMemoryERKNS_8hardware11hidl_memoryE"
  },
  {
   "name" : "_ZN7android4hidl6memory4V1_010BpHwMapperC1ERKNS_2spINS_8hardware7IBinderEEE"
  },
  {
   "name" : "_ZN7android4hidl6memory4V1_010BpHwMapperC2ERKNS_2spINS_8hardware7IBinderEEE"
  },
  {
   "name" : "_ZN7android4hidl6memory4V1_010BpHwMemory10_hidl_readEPNS_8hardware10IInterfaceEPNS4_7details16HidlInstrumentorE"
  },
  {
   "name" : "_ZN7android4hidl6memory4V1_010BpHwMemory10getPointerEv"
  },
  {
   "name" : "_ZN7android4hidl6memory4V1_010BpHwMemory11linkToDeathERKNS_2spINS_8hardware20hidl_death_recipientEEEy"
  },
  {
   "name" : "_ZN7android4hidl6memory4V1_010BpHwMemory11updateRangeEyy"
  },
  {
   "name" : "_ZN7android4hidl6memory4V1_010BpHwMemory12_hidl_commitEPNS_8hardware10IInterfaceEPNS4_7details16HidlInstrumentorE"
  },
  {
   "name" : "_ZN7android4hidl6memory4V1_010BpHwMemory12_hidl_updateEPNS_8hardware10IInterfaceEPNS4_7details16HidlInstrumentorE"
  },
  {
   "name" : "_ZN7android4hidl6memory4V1_010BpHwMemory12getDebugInfoENSt3__18functionIFvRKNS0_4base4V1_09DebugInfoEEEE"
  },
  {
   "name" : "_ZN7android4hidl6memory4V1_010BpHwMemory12getHashChainENSt3__18functionIFvRKNS_8hardware8hidl_vecINS6_10hidl_arrayIhLj32EJEEEEEEEE"
  },
  {
   "name" : "_ZN7android4hidl6memory4V1_010BpHwMemory13_hidl_getSizeEPNS_8hardware10IInterfaceEPNS4_7details16HidlInstrumentorE"
  },
  {
   "name" : "_ZN7android4hidl6memory4V1_010BpHwMemory13unlinkToDeathERKNS_2spINS_8hardware20hidl_death_recipientEEE"
  },
  {
   "name" : "_ZN7android4hidl6memory4V1_010BpHwMemory14interfaceChainENSt3__18functionIFvRKNS_8hardware8hidl_vecINS6_11hidl_stringEEEEEE"
  },
  {
   "name" : "_ZN7android4hidl6memory4V1_010BpHwMemory15_hidl_readRangeEPNS_8hardware10IInterfaceEPNS4_7details16HidlInstrumentorEyy"
  },
  {
   "name" : "_ZN7android4hidl6memory4V1_010BpHwMemory15onLastStrongRefEPKv"
  },
  {
   "name" : "_ZN7android4hidl6memory4V1_010BpHwMemory16_hidl_getPointerEPNS_8hardware10IInterfaceEPNS4_7details16HidlInstrumentorE"
  },
  {
   "name" : "_ZN7android4hidl6memory4V1_010BpHwMemory17_hidl_updateRangeEPNS_8hardware10IInterfaceEPNS4_7details16HidlInstrumentorEyy"
  },
  {
   "name" : "_ZN7android4hidl6memory4V1_010BpHwMemory19interfaceDescriptorENSt3__18functionIFvRKNS_8hardware11hidl_stringEEEE"
  },
  {
   "name" : "_ZN7android4hidl6memory4V1_010BpHwMemory21notifySyspropsChangedEv"
  },
  {
   "name" : "_ZN7android4hidl6memory4V1_010BpHwMemory21setHALInstrumentationEv"
  },
  {
   "name" : "_ZN7android4hidl6memory4V1_010BpHwMemory4pingEv"
  },
  {
   "name" : "_ZN7android4hidl6memory4V1_010BpHwMemory4readEv"
  },
  {
   "name" : "_ZN7android4hidl6memory4V1_010BpHwMemory5debugERKNS_8hardware11hidl_handleERKNS4_8hidl_vecINS4_11hidl_stringEEE"
  },
  {
   "name" : "_ZN7android4hidl6memory4V1_010BpHwMemory6commitEv"
  },
  {
   "name" : "_ZN7android4hidl6memory4V1_010BpHwMemory6updateEv"
  },
  {
   "name" : "_ZN7android4hidl6memory4V1_010BpHwMemory7getSizeEv"
  },
  {
   "name" : "_ZN7android4hidl6memory4V1_010BpHwMemory9readRangeEyy"
  },
  {
   "name" : "_ZN7android4hidl6memory4V1_010BpHwMemoryC1ERKNS_2spINS_8hardware7IBinderEEE"
  },
  {
   "name" : "_ZN7android4hidl6memory4V1_010BpHwMemoryC2ERKNS_2spINS_8hardware7IBinderEEE"
  },
  {
   "name" : "_ZN7android4hidl6memory4V1_07IMapper10getServiceERKNSt3__112basic_stringIcNS4_11char_traitsIcEENS4_9allocatorIcEEEEb"
  },
  {
   "name" : "_ZN7android4hidl6memory4V1_07IMapper11linkToDeathERKNS_2spINS_8hardware20hidl_death_recipientEEEy"
  },
  {
   "name" : "_ZN7android4hidl6memory4V1_07IMapper12getDebugInfoENSt3__18functionIFvRKNS0_4base4V1_09DebugInfoEEEE"
  },
  {
   "name" : "_ZN7android4hidl6memory4V1_07IMapper12getHashChainENSt3__18functionIFvRKNS_8hardware8hidl_vecINS6_10hidl_arrayIhLj32EJEEEEEEEE"
  },
  {
   "name" : "_ZN7android4hidl6memory4V1_07IMapper13tryGetServiceERKNSt3__112basic_stringIcNS4_11char_traitsIcEENS4_9allocatorIcEEEEb"
  },
  {
   "name" : "_ZN7android4hidl6memory4V1_07IMapper13unlinkToDeathERKNS_2spINS_8hardware20hidl_death_recipientEEE"
  },
  {
   "name" : "_ZN7android4hidl6memory4V1_07IMapper14interfaceChainENSt3__18functionIFvRKNS_8hardware8hidl_vecINS6_11hidl_stringEEEEEE"
  },
  {
   "name" : "_ZN7android4hidl6memory4V1_07IMapper17registerAsServiceERKNSt3__112basic_stringIcNS4_11char_traitsIcEENS4_9allocatorIcEEEE"
  },
  {
   "name" : "_ZN7android4hidl6memory4V1_07IMapper19interfaceDescriptorENSt3__18functionIFvRKNS_8hardware11hidl_stringEEEE"
  },
  {
   "name" : "_ZN7android4hidl6memory4V1_07IMapper21notifySyspropsChangedEv"
  },
  {
   "name" : "_ZN7android4hidl6memory4V1_07IMapper21setHALInstrumentationEv"
  },
  {
   "name" : "_ZN7android4hidl6memory4V1_07IMapper24registerForNotificationsERKNSt3__112basic_stringIcNS4_11char_traitsIcEENS4_9allocatorIcEEEERKNS_2spINS0_7manager4V1_020IServiceNotificationEEE"
  },
  {
   "name" : "_ZN7android4hidl6memory4V1_07IMapper4pingEv"
  },
  {
   "name" : "_ZN7android4hidl6memory4V1_07IMapper5debugERKNS_8hardware11hidl_handleERKNS4_8hidl_vecINS4_11hidl_stringEEE"
  },
  {
   "name" : "_ZN7android4hidl6memory4V1_07IMapper8castFromERKNS_2spINS0_4base4V1_05IBaseEEEb"
  },
  {
   "name" : "_ZN7android4hidl6memory4V1_07IMapper8castFromERKNS_2spIS3_EEb"
  },
  {
   "name" : "_ZN7android4hidl6memory4V1_07IMemory10getServiceERKNSt3__112basic_stringIcNS4_11char_traitsIcEENS4_9allocatorIcEEEEb"
  },
  {
   "name" : "_ZN7android4hidl6memory4V1_07IMemory11linkToDeathERKNS_2spINS_8hardware20hidl_death_recipientEEEy"
  },
  {
   "name" : "_ZN7android4hidl6memory4V1_07IMemory12getDebugInfoENSt3__18functionIFvRKNS0_4base4V1_09DebugInfoEEEE"
  },
  {
   "name" : "_ZN7android4hidl6memory4V1_07IMemory12getHashChainENSt3__18functionIFvRKNS_8hardware8hidl_vecINS6_10hidl_arrayIhLj32EJEEEEEEEE"
  },
  {
   "name" : "_ZN7android4hidl6memory4V1_07IMemory13tryGetServiceERKNSt3__112basic_stringIcNS4_11char_traitsIcEENS4_9allocatorIcEEEEb"
  },
  {
   "name" : "_ZN7android4hidl6memory4V1_07IMemory13unlinkToDeathERKNS_2spINS_8hardware20hidl_death_recipientEEE"
  },
  {
   "name" : "_ZN7android4hidl6memory4V1_07IMemory14interfaceChainENSt3__18functionIFvRKNS_8hardware8hidl_vecINS6_11hidl_stringEEEEEE"
  },
  {
   "name" : "_ZN7android4hidl6memory4V1_07IMemory17registerAsServiceERKNSt3__112basic_stringIcNS4_11char_traitsIcEENS4_9allocatorIcEEEE"
  },
  {
   "name" : "_ZN7android4hidl6memory4V1_07IMemory19interfaceDescriptorENSt3__18functionIFvRKNS_8hardware11hidl_stringEEEE"
  },
  {
   "name" : "_ZN7android4hidl6memory4V1_07IMemory21notifySyspropsChangedEv"
  },
  {
   "name" : "_ZN7android4hidl6memory4V1_07IMemory21setHALInstrumentationEv"
  },
  {
   "name" : "_ZN7android4hidl6memory4V1_07IMemory24registerForNotificationsERKNSt3__112basic_stringIcNS4_11char_traitsIcEENS4_9allocatorIcEEEERKNS_2spINS0_7manager4V1_020IServiceNotificationEEE"
  },
  {
   "name" : "_ZN7android4hidl6memory4V1_07IMemory4pingEv"
  },
  {
   "name" : "_ZN7android4hidl6memory4V1_07IMemory5debugERKNS_8hardware11hidl_handleERKNS4_8hidl_vecINS4_11hidl_stringEEE"
  },
  {
   "name" : "_ZN7android4hidl6memory4V1_07IMemory8castFromERKNS_2spINS0_4base4V1_05IBaseEEEb"
  },
  {
   "name" : "_ZN7android4hidl6memory4V1_07IMemory8castFromERKNS_2spIS3_EEb"
  },
  {
   "name" : "_ZN7android4hidl6memory4V1_08BsMapper13addOnewayTaskENSt3__18functionIFvvEEE"
  },
  {
   "name" : "_ZN7android4hidl6memory4V1_08BsMapperC1ENS_2spINS2_7IMapperEEE"
  },
  {
   "name" : "_ZN7android4hidl6memory4V1_08BsMapperC2ENS_2spINS2_7IMapperEEE"
  },
  {
   "name" : "_ZN7android4hidl6memory4V1_08BsMemory13addOnewayTaskENSt3__18functionIFvvEEE"
  },
  {
   "name" : "_ZN7android4hidl6memory4V1_08BsMemoryC1ENS_2spINS2_7IMemoryEEE"
  },
  {
   "name" : "_ZN7android4hidl6memory4V1_08BsMemoryC2ENS_2spINS2_7IMemoryEEE"
  },
  {
   "binding" : "weak",
   "name" : "_ZN7android8hardware10fromBinderINS_4hidl6memory4V1_07IMemoryENS4_10BpHwMemoryENS4_10BnHwMemoryEEENS_2spIT_EERKNS8_INS0_7IBinderEEE"
  },
  {
   "binding" : "weak",
   "name" : "_ZN7android8hardware7details13castInterfaceINS_4hidl6memory4V1_07IMapperENS3_4base4V1_05IBaseENS5_10BpHwMapperEEENS0_6ReturnINS_2spIT_EEEENSC_IT0_EEPKcb"
  },
  {
   "binding" : "weak",
   "name" : "_ZN7android8hardware7details13castInterfaceINS_4hidl6memory4V1_07IMemoryENS3_4base4V1_05IBaseENS5_10BpHwMemoryEEENS0_6ReturnINS_2spIT_EEEENSC_IT0_EEPKcb"
  },
  {
   "binding" : "weak",
   "name" : "_ZN7android8hardware7details15wrapPassthroughINS_4hidl6memory4V1_07IMemoryEvEENS_2spIT_EES9_"
  },
  {
   "binding" : "weak",
   "name" : "_ZN7android8hardware7details18getServiceInternalINS_4hidl6memory4V1_010BpHwMapperENS5_7IMapperEvvEENS_2spIT0_EERKNSt3__112basic_stringIcNSB_11char_traitsIcEENSB_9allocatorIcEEEEbb"
  },
  {
   "binding" : "weak",
   "name" : "_ZN7android8hardware7details18getServiceInternalINS_4hidl6memory4V1_010BpHwMemoryENS5_7IMemoryEvvEENS_2spIT0_EERKNSt3__112basic_stringIcNSB_11char_traitsIcEENSB_9allocatorIcEEEEbb"
  },
  {
   "binding" : "weak",
   "name" : "_ZNKSt3__18functionIFvN7android8hardware7details16HidlInstrumentor20InstrumentationEventEPKcS7_S7_S7_PNS_6vectorIPvNS_9allocatorIS9_EEEEEEclES5_S7_S7_S7_S7_SD_"
  },
  {
   "binding" : "weak",
   "name" : "_ZNSt3__113__tree_removeIPNS_16__tree_node_baseIPvEEEEvT_S5_"
  },
  {
   "binding" : "weak",
   "name" : "_ZNSt3__127__tree_balance_after_insertIPNS_16__tree_node_baseIPvEEEEvT_S5_"
  },
  {
   "binding" : "weak",
   "name" : "_ZNSt3__16__treeINS_12__value_typeINS_12basic_stringIcNS_11char_traitsIcEENS_9allocatorIcEEEENS_8functionIFN7android2spINS9_4hidl4base4V1_05IBaseEEEPvEEEEENS_19__map_value_compareIS7_SJ_NS_4lessIS7_EELb1EEENS5_ISJ_EEE12__find_equalIS7_EERPNS_16__tree_node_baseISG_EERPNS_15__tree_end_nodeIST_EERKT_"
  },
  {
   "binding" : "weak",
   "name" : "_ZNSt3__16__treeINS_12__value_typeINS_12basic_stringIcNS_11char_traitsIcEENS_9allocatorIcEEEENS_8functionIFN7android2spINS9_4hidl4base4V1_05IBaseEEEPvEEEEENS_19__map_value_compareIS7_SJ_NS_4lessIS7_EELb1EEENS5_ISJ_EEE4findIS7_EENS_15__tree_iteratorISJ_PNS_11__tree_nodeISJ_SG_EEiEERKT_"
  },
  {
   "binding" : "weak",
   "name" : "_ZNSt3__16__treeINS_12__value_typeINS_12basic_stringIcNS_11char_traitsIcEENS_9allocatorIcEEEENS_8functionIFN7android2spINS9_4hidl4base4V1_05IBaseEEEPvEEEEENS_19__map_value_compareIS7_SJ_NS_4lessIS7_EELb1EEENS5_ISJ_EEE5eraseENS_21__tree_const_iteratorISJ_PNS_11__tree_nodeISJ_SG_EEiEE"
  },
  {
   "binding" : "weak",
   "name" : "_ZNSt3__16__treeINS_12__value_typeINS_12basic_stringIcNS_11char_traitsIcEENS_9allocatorIcEEEENS_8functionIFN7android2spINS9_8hardware7IBinderEEEPvEEEEENS_19__map_value_compareIS7_SH_NS_4lessIS7_EELb1EEENS5_ISH_EEE12__find_equalIS7_EERPNS_16__tree_node_baseISE_EERPNS_15__tree_end_nodeISR_EERKT_"
  },
  {
   "binding" : "weak",
   "name" : "_ZNSt3__16__treeINS_12__value_typeINS_12basic_stringIcNS_11char_traitsIcEENS_9allocatorIcEEEENS_8functionIFN7android2spINS9_8hardware7IBinderEEEPvEEEEENS_19__map_value_compareIS7_SH_NS_4lessIS7_EELb1EEENS5_ISH_EEE4findIS7_EENS_15__tree_iteratorISH_PNS_11__tree_nodeISH_SE_EEiEERKT_"
  },
  {
   "binding" : "weak",
   "name" : "_ZNSt3__16__treeINS_12__value_typeINS_12basic_stringIcNS_11char_traitsIcEENS_9allocatorIcEEEENS_8functionIFN7android2spINS9_8hardware7IBinderEEEPvEEEEENS_19__map_value_compareIS7_SH_NS_4lessIS7_EELb1EEENS5_ISH_EEE5eraseENS_21__tree_const_iteratorISH_PNS_11__tree_nodeISH_SE_EEiEE"
  },
  {
   "binding" : "weak",
   "name" : "_ZNSt3__16vectorIN7android2spINS1_8hardware27hidl_binder_death_recipientEEENS_9allocatorIS5_EEE21__push_back_slow_pathIS5_EEvOT_"
  },
  {
   "binding" : "weak",
   "name" : "_ZNSt3__16vectorINS_8functionIFvN7android8hardware7details16HidlInstrumentor20InstrumentationEventEPKcS8_S8_S8_PNS0_IPvNS_9allocatorIS9_EEEEEEENSA_ISF_EEEC2ERKSH_"
  },
  {
   "binding" : "weak",
   "name" : "_ZNSt3__16vectorIPvNS_9allocatorIS1_EEE21__push_back_slow_pathIS1_EEvOT_"
  },
  {
   "name" : "_ZThn20_N7android4hidl6memory4V1_010BnHwMapperD0Ev"
  },
  {
   "name" : "_ZThn20_N7android4hidl6memory4V1_010BnHwMapperD1Ev"
  },
  {
   "name" : "_ZThn20_N7android4hidl6memory4V1_010BnHwMemoryD0Ev"
  },
  {
   "name" : "_ZThn20_N7android4hidl6memory4V1_010BnHwMemoryD1Ev"
  },
  {
   "name" : "_ZThn8_N7android4hidl6memory4V1_010BpHwMapper15onLastStrongRefEPKv"
  },
  {
   "name" : "_ZThn8_N7android4hidl6memory4V1_010BpHwMemory15onLastStrongRefEPKv"
  },
  {
   "name" : "_ZTv0_n12_N7android4hidl6memory4V1_010BnHwMapperD0Ev"
  },
  {
   "name" : "_ZTv0_n12_N7android4hidl6memory4V1_010BnHwMapperD1Ev"
  },
  {
   "name" : "_ZTv0_n12_N7android4hidl6memory4V1_010BnHwMemoryD0Ev"
  },
  {
   "name" : "_ZTv0_n12_N7android4hidl6memory4V1_010BnHwMemoryD1Ev"
  },
  {
   "name" : "_ZTv0_n20_N7android4hidl6memory4V1_010BpHwMapper15onLastStrongRefEPKv"
  },
  {
   "name" : "_ZTv0_n20_N7android4hidl6memory4V1_010BpHwMemory15onLastStrongRefEPKv"
  }
 ],
 "elf_objects" :
 [
  {
   "name" : "_ZN7android4hidl6memory4V1_07IMapper10descriptorE"
  },
  {
   "name" : "_ZN7android4hidl6memory4V1_07IMemory10descriptorE"
  },
  {
   "name" : "_ZTCN7android4hidl6memory4V1_010BnHwMapperE0_NS0_4base4V1_08BnHwBaseE"
  },
  {
   "name" : "_ZTCN7android4hidl6memory4V1_010BnHwMapperE0_NS_8hardware7IBinderE"
  },
  {
   "name" : "_ZTCN7android4hidl6memory4V1_010BnHwMapperE0_NS_8hardware9BHwBinderE"
  },
  {
   "name" : "_ZTCN7android4hidl6memory4V1_010BnHwMemoryE0_NS0_4base4V1_08BnHwBaseE"
  },
  {
   "name" : "_ZTCN7android4hidl6memory4V1_010BnHwMemoryE0_NS_8hardware7IBinderE"
  },
  {
   "name" : "_ZTCN7android4hidl6memory4V1_010BnHwMemoryE0_NS_8hardware9BHwBinderE"
  },
  {
   "name" : "_ZTCN7android4hidl6memory4V1_010BpHwMapperE0_NS0_4base4V1_05IBaseE"
  },
  {
   "name" : "_ZTCN7android4hidl6memory4V1_010BpHwMapperE0_NS2_7IMapperE"
  },
  {
   "name" : "_ZTCN7android4hidl6memory4V1_010BpHwMapperE0_NS_8hardware11BpInterfaceINS2_7IMapperEEE"
  },
  {
   "name" : "_ZTCN7android4hidl6memory4V1_010BpHwMapperE4_NS_8hardware10IInterfaceE"
  },
  {
   "name" : "_ZTCN7android4hidl6memory4V1_010BpHwMapperE8_NS_8hardware11BpHwRefBaseE"
  },
  {
   "name" : "_ZTCN7android4hidl6memory4V1_010BpHwMemoryE0_NS0_4base4V1_05IBaseE"
  },
  {
   "name" : "_ZTCN7android4hidl6memory4V1_010BpHwMemoryE0_NS2_7IMemoryE"
  },
  {
   "name" : "_ZTCN7android4hidl6memory4V1_010BpHwMemoryE0_NS_8hardware11BpInterfaceINS2_7IMemoryEEE"
  },
  {
   "name" : "_ZTCN7android4hidl6memory4V1_010BpHwMemoryE4_NS_8hardware10IInterfaceE"
  },
  {
   "name" : "_ZTCN7android4hidl6memory4V1_010BpHwMemoryE8_NS_8hardware11BpHwRefBaseE"
  },
  {
   "name" : "_ZTCN7android4hidl6memory4V1_07IMapperE0_NS0_4base4V1_05IBaseE"
  },
  {
   "name" : "_ZTCN7android4hidl6memory4V1_07IMemoryE0_NS0_4base4V1_05IBaseE"
  },
  {
   "binding" : "weak",
   "name" : "_ZTCN7android4hidl6memory4V1_08BsMapperE0_NS2_7IMapperE"
  },
  {
   "binding" : "weak",
   "name" : "_ZTCN7android4hidl6memory4V1_08BsMemoryE0_NS2_7IMemoryE"
  },
  {
   "name" : "_ZTTN7android4hidl6memory4V1_010BnHwMapperE"
  },
  {
   "name" : "_ZTTN7android4hidl6memory4V1_010BnHwMemoryE"
  },
  {
   "name" : "_ZTTN7android4hidl6memory4V1_010BpHwMapperE"
  },
  {
   "name" : "_ZTTN7android4hidl6memory4V1_010BpHwMemoryE"
  },
  {
   "name" : "_ZTTN7android4hidl6memory4V1_07IMapperE"
  },
  {
   "name" : "_ZTTN7android4hidl6memory4V1_07IMemoryE"
  },
  {
   "name" : "_ZTVN7android4hidl6memory4V1_010BnHwMapperE"
  },
  {
   "name" : "_ZTVN7android4hidl6memory4V1_010BnHwMemoryE"
  },
  {
   "name" : "_ZTVN7android4hidl6memory4V1_010BpHwMapperE"
  },
  {
   "name" : "_ZTVN7android4hidl6memory4V1_010BpHwMemoryE"
  },
  {
   "name" : "_ZTVN7android4hidl6memory4V1_07IMapperE"
  },
  {
   "name" : "_ZTVN7android4hidl6memory4V1_07IMemoryE"
  },
  {
   "binding" : "weak",
   "name" : "_ZTVN7android4hidl6memory4V1_08BsMapperE"
  },
  {
   "binding" : "weak",
   "name" : "_ZTVN7android4hidl6memory4V1_08BsMemoryE"
  }
 ],
 "enum_types" : [],
 "function_types" : [],
 "functions" : [],
 "global_vars" : [],
 "lvalue_reference_types" : [],
 "pointer_types" : [],
 "qualified_types" : [],
 "record_types" : [],
 "rvalue_reference_types" : []
}
