{
 "array_types" : [],
 "builtin_types" : [],
 "elf_functions" :
 [
  {
   "binding" : "weak",
   "name" : "_ZN7android8hardware7details13castInterfaceINS0_8graphics6mapper4V2_17IMapperENS4_4V2_07IMapperENS5_10BpHwMapperEEENS0_6ReturnINS_2spIT_EEEENSB_IT0_EEPKcb"
  },
  {
   "binding" : "weak",
   "name" : "_ZN7android8hardware7details13castInterfaceINS0_8graphics6mapper4V2_17IMapperENS_4hidl4base4V1_05IBaseENS5_10BpHwMapperEEENS0_6ReturnINS_2spIT_EEEENSD_IT0_EEPKcb"
  },
  {
   "binding" : "weak",
   "name" : "_ZN7android8hardware7details18getServiceInternalINS0_8graphics6mapper4V2_110BpHwMapperENS5_7IMapperEvvEENS_2spIT0_EERKNSt3__112basic_stringIcNSB_11char_traitsIcEENSB_9allocatorIcEEEEbb"
  },
  {
   "name" : "_ZN7android8hardware8graphics6mapper4V2_110BnHwMapper10onTransactEjRKNS0_6ParcelEPS5_jNSt3__18functionIFvRS5_EEE"
  },
  {
   "name" : "_ZN7android8hardware8graphics6mapper4V2_110BnHwMapper12getDebugInfoENSt3__18functionIFvRKNS_4hidl4base4V1_09DebugInfoEEEE"
  },
  {
   "name" : "_ZN7android8hardware8graphics6mapper4V2_110BnHwMapper22_hidl_getTransportSizeEPNS_4hidl4base4V1_08BnHwBaseERKNS0_6ParcelEPSA_NSt3__18functionIFvRSA_EEE"
  },
  {
   "name" : "_ZN7android8hardware8graphics6mapper4V2_110BnHwMapper24_hidl_validateBufferSizeEPNS_4hidl4base4V1_08BnHwBaseERKNS0_6ParcelEPSA_NSt3__18functionIFvRSA_EEE"
  },
  {
   "name" : "_ZN7android8hardware8graphics6mapper4V2_110BnHwMapper26_hidl_createDescriptor_2_1EPNS_4hidl4base4V1_08BnHwBaseERKNS0_6ParcelEPSA_NSt3__18functionIFvRSA_EEE"
  },
  {
   "name" : "_ZN7android8hardware8graphics6mapper4V2_110BnHwMapper4pingEv"
  },
  {
   "name" : "_ZN7android8hardware8graphics6mapper4V2_110BnHwMapperC1ERKNS_2spINS3_7IMapperEEE"
  },
  {
   "name" : "_ZN7android8hardware8graphics6mapper4V2_110BnHwMapperC2ERKNS_2spINS3_7IMapperEEE"
  },
  {
   "name" : "_ZN7android8hardware8graphics6mapper4V2_110BnHwMapperD0Ev"
  },
  {
   "name" : "_ZN7android8hardware8graphics6mapper4V2_110BnHwMapperD1Ev"
  },
  {
   "name" : "_ZN7android8hardware8graphics6mapper4V2_110BnHwMapperD2Ev"
  },
  {
   "name" : "_ZN7android8hardware8graphics6mapper4V2_110BpHwMapper10freeBufferEPv"
  },
  {
   "name" : "_ZN7android8hardware8graphics6mapper4V2_110BpHwMapper11linkToDeathERKNS_2spINS0_20hidl_death_recipientEEEm"
  },
  {
   "name" : "_ZN7android8hardware8graphics6mapper4V2_110BpHwMapper12getDebugInfoENSt3__18functionIFvRKNS_4hidl4base4V1_09DebugInfoEEEE"
  },
  {
   "name" : "_ZN7android8hardware8graphics6mapper4V2_110BpHwMapper12getHashChainENSt3__18functionIFvRKNS0_8hidl_vecINS0_10hidl_arrayIhLm32EJEEEEEEEE"
  },
  {
   "name" : "_ZN7android8hardware8graphics6mapper4V2_110BpHwMapper12importBufferERKNS0_11hidl_handleENSt3__18functionIFvNS2_4V2_05ErrorEPvEEE"
  },
  {
   "name" : "_ZN7android8hardware8graphics6mapper4V2_110BpHwMapper13unlinkToDeathERKNS_2spINS0_20hidl_death_recipientEEE"
  },
  {
   "name" : "_ZN7android8hardware8graphics6mapper4V2_110BpHwMapper14interfaceChainENSt3__18functionIFvRKNS0_8hidl_vecINS0_11hidl_stringEEEEEE"
  },
  {
   "name" : "_ZN7android8hardware8graphics6mapper4V2_110BpHwMapper15onLastStrongRefEPKv"
  },
  {
   "name" : "_ZN7android8hardware8graphics6mapper4V2_110BpHwMapper16createDescriptorERKNS2_4V2_07IMapper20BufferDescriptorInfoENSt3__18functionIFvNS5_5ErrorERKNS0_8hidl_vecIjEEEEE"
  },
  {
   "name" : "_ZN7android8hardware8graphics6mapper4V2_110BpHwMapper16getTransportSizeEPvNSt3__18functionIFvNS2_4V2_05ErrorEjjEEE"
  },
  {
   "name" : "_ZN7android8hardware8graphics6mapper4V2_110BpHwMapper18validateBufferSizeEPvRKNS3_7IMapper20BufferDescriptorInfoEj"
  },
  {
   "name" : "_ZN7android8hardware8graphics6mapper4V2_110BpHwMapper19interfaceDescriptorENSt3__18functionIFvRKNS0_11hidl_stringEEEE"
  },
  {
   "name" : "_ZN7android8hardware8graphics6mapper4V2_110BpHwMapper20createDescriptor_2_1ERKNS3_7IMapper20BufferDescriptorInfoENSt3__18functionIFvNS2_4V2_05ErrorERKNS0_8hidl_vecIjEEEEE"
  },
  {
   "name" : "_ZN7android8hardware8graphics6mapper4V2_110BpHwMapper21notifySyspropsChangedEv"
  },
  {
   "name" : "_ZN7android8hardware8graphics6mapper4V2_110BpHwMapper21setHALInstrumentationEv"
  },
  {
   "name" : "_ZN7android8hardware8graphics6mapper4V2_110BpHwMapper22_hidl_getTransportSizeEPNS0_10IInterfaceEPNS0_7details16HidlInstrumentorEPvNSt3__18functionIFvNS2_4V2_05ErrorEjjEEE"
  },
  {
   "name" : "_ZN7android8hardware8graphics6mapper4V2_110BpHwMapper24_hidl_validateBufferSizeEPNS0_10IInterfaceEPNS0_7details16HidlInstrumentorEPvRKNS3_7IMapper20BufferDescriptorInfoEj"
  },
  {
   "name" : "_ZN7android8hardware8graphics6mapper4V2_110BpHwMapper26_hidl_createDescriptor_2_1EPNS0_10IInterfaceEPNS0_7details16HidlInstrumentorERKNS3_7IMapper20BufferDescriptorInfoENSt3__18functionIFvNS2_4V2_05ErrorERKNS0_8hidl_vecIjEEEEE"
  },
  {
   "name" : "_ZN7android8hardware8graphics6mapper4V2_110BpHwMapper4lockEPvmRKNS2_4V2_07IMapper4RectERKNS0_11hidl_handleENSt3__18functionIFvNS6_5ErrorES5_EEE"
  },
  {
   "name" : "_ZN7android8hardware8graphics6mapper4V2_110BpHwMapper4pingEv"
  },
  {
   "name" : "_ZN7android8hardware8graphics6mapper4V2_110BpHwMapper5debugERKNS0_11hidl_handleERKNS0_8hidl_vecINS0_11hidl_stringEEE"
  },
  {
   "name" : "_ZN7android8hardware8graphics6mapper4V2_110BpHwMapper6unlockEPvNSt3__18functionIFvNS2_4V2_05ErrorERKNS0_11hidl_handleEEEE"
  },
  {
   "name" : "_ZN7android8hardware8graphics6mapper4V2_110BpHwMapper9lockYCbCrEPvmRKNS2_4V2_07IMapper4RectERKNS0_11hidl_handleENSt3__18functionIFvNS6_5ErrorERKNS6_11YCbCrLayoutEEEE"
  },
  {
   "name" : "_ZN7android8hardware8graphics6mapper4V2_110BpHwMapperC1ERKNS_2spINS0_7IBinderEEE"
  },
  {
   "name" : "_ZN7android8hardware8graphics6mapper4V2_110BpHwMapperC2ERKNS_2spINS0_7IBinderEEE"
  },
  {
   "name" : "_ZN7android8hardware8graphics6mapper4V2_17IMapper10getServiceERKNSt3__112basic_stringIcNS5_11char_traitsIcEENS5_9allocatorIcEEEEb"
  },
  {
   "name" : "_ZN7android8hardware8graphics6mapper4V2_17IMapper11linkToDeathERKNS_2spINS0_20hidl_death_recipientEEEm"
  },
  {
   "name" : "_ZN7android8hardware8graphics6mapper4V2_17IMapper12getDebugInfoENSt3__18functionIFvRKNS_4hidl4base4V1_09DebugInfoEEEE"
  },
  {
   "name" : "_ZN7android8hardware8graphics6mapper4V2_17IMapper12getHashChainENSt3__18functionIFvRKNS0_8hidl_vecINS0_10hidl_arrayIhLm32EJEEEEEEEE"
  },
  {
   "name" : "_ZN7android8hardware8graphics6mapper4V2_17IMapper13tryGetServiceERKNSt3__112basic_stringIcNS5_11char_traitsIcEENS5_9allocatorIcEEEEb"
  },
  {
   "name" : "_ZN7android8hardware8graphics6mapper4V2_17IMapper13unlinkToDeathERKNS_2spINS0_20hidl_death_recipientEEE"
  },
  {
   "name" : "_ZN7android8hardware8graphics6mapper4V2_17IMapper14interfaceChainENSt3__18functionIFvRKNS0_8hidl_vecINS0_11hidl_stringEEEEEE"
  },
  {
   "name" : "_ZN7android8hardware8graphics6mapper4V2_17IMapper17registerAsServiceERKNSt3__112basic_stringIcNS5_11char_traitsIcEENS5_9allocatorIcEEEE"
  },
  {
   "name" : "_ZN7android8hardware8graphics6mapper4V2_17IMapper19interfaceDescriptorENSt3__18functionIFvRKNS0_11hidl_stringEEEE"
  },
  {
   "name" : "_ZN7android8hardware8graphics6mapper4V2_17IMapper21notifySyspropsChangedEv"
  },
  {
   "name" : "_ZN7android8hardware8graphics6mapper4V2_17IMapper21setHALInstrumentationEv"
  },
  {
   "name" : "_ZN7android8hardware8graphics6mapper4V2_17IMapper24registerForNotificationsERKNSt3__112basic_stringIcNS5_11char_traitsIcEENS5_9allocatorIcEEEERKNS_2spINS_4hidl7manager4V1_020IServiceNotificationEEE"
  },
  {
   "name" : "_ZN7android8hardware8graphics6mapper4V2_17IMapper4pingEv"
  },
  {
   "name" : "_ZN7android8hardware8graphics6mapper4V2_17IMapper5debugERKNS0_11hidl_handleERKNS0_8hidl_vecINS0_11hidl_stringEEE"
  },
  {
   "name" : "_ZN7android8hardware8graphics6mapper4V2_17IMapper8castFromERKNS_2spINS2_4V2_07IMapperEEEb"
  },
  {
   "name" : "_ZN7android8hardware8graphics6mapper4V2_17IMapper8castFromERKNS_2spINS_4hidl4base4V1_05IBaseEEEb"
  },
  {
   "name" : "_ZN7android8hardware8graphics6mapper4V2_17IMapper8castFromERKNS_2spIS4_EEb"
  },
  {
   "name" : "_ZN7android8hardware8graphics6mapper4V2_18BsMapper13addOnewayTaskENSt3__18functionIFvvEEE"
  },
  {
   "name" : "_ZN7android8hardware8graphics6mapper4V2_18BsMapperC1ENS_2spINS3_7IMapperEEE"
  },
  {
   "name" : "_ZN7android8hardware8graphics6mapper4V2_18BsMapperC2ENS_2spINS3_7IMapperEEE"
  },
  {
   "binding" : "weak",
   "name" : "_ZNKSt3__18functionIFvN7android8hardware7details16HidlInstrumentor20InstrumentationEventEPKcS7_S7_S7_PNS_6vectorIPvNS_9allocatorIS9_EEEEEEclES5_S7_S7_S7_S7_SD_"
  },
  {
   "binding" : "weak",
   "name" : "_ZNSt3__113__tree_removeIPNS_16__tree_node_baseIPvEEEEvT_S5_"
  },
  {
   "binding" : "weak",
   "name" : "_ZNSt3__127__tree_balance_after_insertIPNS_16__tree_node_baseIPvEEEEvT_S5_"
  },
  {
   "binding" : "weak",
   "name" : "_ZNSt3__16__treeINS_12__value_typeINS_12basic_stringIcNS_11char_traitsIcEENS_9allocatorIcEEEENS_8functionIFN7android2spINS9_4hidl4base4V1_05IBaseEEEPvEEEEENS_19__map_value_compareIS7_SJ_NS_4lessIS7_EELb1EEENS5_ISJ_EEE12__find_equalIS7_EERPNS_16__tree_node_baseISG_EERPNS_15__tree_end_nodeIST_EERKT_"
  },
  {
   "binding" : "weak",
   "name" : "_ZNSt3__16__treeINS_12__value_typeINS_12basic_stringIcNS_11char_traitsIcEENS_9allocatorIcEEEENS_8functionIFN7android2spINS9_4hidl4base4V1_05IBaseEEEPvEEEEENS_19__map_value_compareIS7_SJ_NS_4lessIS7_EELb1EEENS5_ISJ_EEE4findIS7_EENS_15__tree_iteratorISJ_PNS_11__tree_nodeISJ_SG_EElEERKT_"
  },
  {
   "binding" : "weak",
   "name" : "_ZNSt3__16__treeINS_12__value_typeINS_12basic_stringIcNS_11char_traitsIcEENS_9allocatorIcEEEENS_8functionIFN7android2spINS9_4hidl4base4V1_05IBaseEEEPvEEEEENS_19__map_value_compareIS7_SJ_NS_4lessIS7_EELb1EEENS5_ISJ_EEE5eraseENS_21__tree_const_iteratorISJ_PNS_11__tree_nodeISJ_SG_EElEE"
  },
  {
   "binding" : "weak",
   "name" : "_ZNSt3__16__treeINS_12__value_typeINS_12basic_stringIcNS_11char_traitsIcEENS_9allocatorIcEEEENS_8functionIFN7android2spINS9_8hardware7IBinderEEEPvEEEEENS_19__map_value_compareIS7_SH_NS_4lessIS7_EELb1EEENS5_ISH_EEE12__find_equalIS7_EERPNS_16__tree_node_baseISE_EERPNS_15__tree_end_nodeISR_EERKT_"
  },
  {
   "binding" : "weak",
   "name" : "_ZNSt3__16__treeINS_12__value_typeINS_12basic_stringIcNS_11char_traitsIcEENS_9allocatorIcEEEENS_8functionIFN7android2spINS9_8hardware7IBinderEEEPvEEEEENS_19__map_value_compareIS7_SH_NS_4lessIS7_EELb1EEENS5_ISH_EEE4findIS7_EENS_15__tree_iteratorISH_PNS_11__tree_nodeISH_SE_EElEERKT_"
  },
  {
   "binding" : "weak",
   "name" : "_ZNSt3__16__treeINS_12__value_typeINS_12basic_stringIcNS_11char_traitsIcEENS_9allocatorIcEEEENS_8functionIFN7android2spINS9_8hardware7IBinderEEEPvEEEEENS_19__map_value_compareIS7_SH_NS_4lessIS7_EELb1EEENS5_ISH_EEE5eraseENS_21__tree_const_iteratorISH_PNS_11__tree_nodeISH_SE_EElEE"
  },
  {
   "binding" : "weak",
   "name" : "_ZNSt3__16vectorIN7android2spINS1_8hardware27hidl_binder_death_recipientEEENS_9allocatorIS5_EEE21__push_back_slow_pathIS5_EEvOT_"
  },
  {
   "binding" : "weak",
   "name" : "_ZNSt3__16vectorINS_8functionIFvN7android8hardware7details16HidlInstrumentor20InstrumentationEventEPKcS8_S8_S8_PNS0_IPvNS_9allocatorIS9_EEEEEEENSA_ISF_EEEC2ERKSH_"
  },
  {
   "binding" : "weak",
   "name" : "_ZNSt3__16vectorIPvNS_9allocatorIS1_EEE21__push_back_slow_pathIS1_EEvOT_"
  },
  {
   "name" : "_ZThn16_N7android8hardware8graphics6mapper4V2_110BpHwMapper15onLastStrongRefEPKv"
  },
  {
   "name" : "_ZThn32_N7android8hardware8graphics6mapper4V2_110BnHwMapperD0Ev"
  },
  {
   "name" : "_ZThn32_N7android8hardware8graphics6mapper4V2_110BnHwMapperD1Ev"
  },
  {
   "name" : "_ZTv0_n24_N7android8hardware8graphics6mapper4V2_110BnHwMapperD0Ev"
  },
  {
   "name" : "_ZTv0_n24_N7android8hardware8graphics6mapper4V2_110BnHwMapperD1Ev"
  },
  {
   "name" : "_ZTv0_n40_N7android8hardware8graphics6mapper4V2_110BpHwMapper15onLastStrongRefEPKv"
  }
 ],
 "elf_objects" :
 [
  {
   "name" : "_ZN7android8hardware8graphics6mapper4V2_17IMapper10descriptorE"
  },
  {
   "name" : "_ZTCN7android8hardware8graphics6mapper4V2_110BnHwMapperE0_NS0_7IBinderE"
  },
  {
   "name" : "_ZTCN7android8hardware8graphics6mapper4V2_110BnHwMapperE0_NS0_9BHwBinderE"
  },
  {
   "name" : "_ZTCN7android8hardware8graphics6mapper4V2_110BnHwMapperE0_NS_4hidl4base4V1_08BnHwBaseE"
  },
  {
   "name" : "_ZTCN7android8hardware8graphics6mapper4V2_110BpHwMapperE0_NS0_11BpInterfaceINS3_7IMapperEEE"
  },
  {
   "name" : "_ZTCN7android8hardware8graphics6mapper4V2_110BpHwMapperE0_NS2_4V2_07IMapperE"
  },
  {
   "name" : "_ZTCN7android8hardware8graphics6mapper4V2_110BpHwMapperE0_NS3_7IMapperE"
  },
  {
   "name" : "_ZTCN7android8hardware8graphics6mapper4V2_110BpHwMapperE0_NS_4hidl4base4V1_05IBaseE"
  },
  {
   "name" : "_ZTCN7android8hardware8graphics6mapper4V2_110BpHwMapperE16_NS0_11BpHwRefBaseE"
  },
  {
   "name" : "_ZTCN7android8hardware8graphics6mapper4V2_110BpHwMapperE8_NS0_10IInterfaceE"
  },
  {
   "name" : "_ZTCN7android8hardware8graphics6mapper4V2_17IMapperE0_NS2_4V2_07IMapperE"
  },
  {
   "name" : "_ZTCN7android8hardware8graphics6mapper4V2_17IMapperE0_NS_4hidl4base4V1_05IBaseE"
  },
  {
   "binding" : "weak",
   "name" : "_ZTCN7android8hardware8graphics6mapper4V2_18BsMapperE0_NS3_7IMapperE"
  },
  {
   "name" : "_ZTTN7android8hardware8graphics6mapper4V2_110BnHwMapperE"
  },
  {
   "name" : "_ZTTN7android8hardware8graphics6mapper4V2_110BpHwMapperE"
  },
  {
   "name" : "_ZTTN7android8hardware8graphics6mapper4V2_17IMapperE"
  },
  {
   "name" : "_ZTVN7android8hardware8graphics6mapper4V2_110BnHwMapperE"
  },
  {
   "name" : "_ZTVN7android8hardware8graphics6mapper4V2_110BpHwMapperE"
  },
  {
   "name" : "_ZTVN7android8hardware8graphics6mapper4V2_17IMapperE"
  },
  {
   "binding" : "weak",
   "name" : "_ZTVN7android8hardware8graphics6mapper4V2_18BsMapperE"
  }
 ],
 "enum_types" : [],
 "function_types" : [],
 "functions" : [],
 "global_vars" : [],
 "lvalue_reference_types" : [],
 "pointer_types" : [],
 "qualified_types" : [],
 "record_types" : [],
 "rvalue_reference_types" : []
}
