{
 "array_types" : [],
 "builtin_types" : [],
 "elf_functions" :
 [
  {
   "name" : "_ZN7android8hardware11configstore4V1_122ISurfaceFlingerConfigs10getServiceERKNSt3__112basic_stringIcNS4_11char_traitsIcEENS4_9allocatorIcEEEEb"
  },
  {
   "name" : "_ZN7android8hardware11configstore4V1_122ISurfaceFlingerConfigs11linkToDeathERKNS_2spINS0_20hidl_death_recipientEEEm"
  },
  {
   "name" : "_ZN7android8hardware11configstore4V1_122ISurfaceFlingerConfigs12getDebugInfoENSt3__18functionIFvRKNS_4hidl4base4V1_09DebugInfoEEEE"
  },
  {
   "name" : "_ZN7android8hardware11configstore4V1_122ISurfaceFlingerConfigs12getHashChainENSt3__18functionIFvRKNS0_8hidl_vecINS0_10hidl_arrayIhLm32EJEEEEEEEE"
  },
  {
   "name" : "_ZN7android8hardware11configstore4V1_122ISurfaceFlingerConfigs13tryGetServiceERKNSt3__112basic_stringIcNS4_11char_traitsIcEENS4_9allocatorIcEEEEb"
  },
  {
   "name" : "_ZN7android8hardware11configstore4V1_122ISurfaceFlingerConfigs13unlinkToDeathERKNS_2spINS0_20hidl_death_recipientEEE"
  },
  {
   "name" : "_ZN7android8hardware11configstore4V1_122ISurfaceFlingerConfigs14interfaceChainENSt3__18functionIFvRKNS0_8hidl_vecINS0_11hidl_stringEEEEEE"
  },
  {
   "name" : "_ZN7android8hardware11configstore4V1_122ISurfaceFlingerConfigs17registerAsServiceERKNSt3__112basic_stringIcNS4_11char_traitsIcEENS4_9allocatorIcEEEE"
  },
  {
   "name" : "_ZN7android8hardware11configstore4V1_122ISurfaceFlingerConfigs19interfaceDescriptorENSt3__18functionIFvRKNS0_11hidl_stringEEEE"
  },
  {
   "name" : "_ZN7android8hardware11configstore4V1_122ISurfaceFlingerConfigs21notifySyspropsChangedEv"
  },
  {
   "name" : "_ZN7android8hardware11configstore4V1_122ISurfaceFlingerConfigs21setHALInstrumentationEv"
  },
  {
   "name" : "_ZN7android8hardware11configstore4V1_122ISurfaceFlingerConfigs24registerForNotificationsERKNSt3__112basic_stringIcNS4_11char_traitsIcEENS4_9allocatorIcEEEERKNS_2spINS_4hidl7manager4V1_020IServiceNotificationEEE"
  },
  {
   "name" : "_ZN7android8hardware11configstore4V1_122ISurfaceFlingerConfigs4pingEv"
  },
  {
   "name" : "_ZN7android8hardware11configstore4V1_122ISurfaceFlingerConfigs5debugERKNS0_11hidl_handleERKNS0_8hidl_vecINS0_11hidl_stringEEE"
  },
  {
   "name" : "_ZN7android8hardware11configstore4V1_122ISurfaceFlingerConfigs8castFromERKNS_2spINS1_4V1_022ISurfaceFlingerConfigsEEEb"
  },
  {
   "name" : "_ZN7android8hardware11configstore4V1_122ISurfaceFlingerConfigs8castFromERKNS_2spINS_4hidl4base4V1_05IBaseEEEb"
  },
  {
   "name" : "_ZN7android8hardware11configstore4V1_122ISurfaceFlingerConfigs8castFromERKNS_2spIS3_EEb"
  },
  {
   "name" : "_ZN7android8hardware11configstore4V1_123BsSurfaceFlingerConfigs13addOnewayTaskENSt3__18functionIFvvEEE"
  },
  {
   "name" : "_ZN7android8hardware11configstore4V1_123BsSurfaceFlingerConfigsC1ENS_2spINS2_22ISurfaceFlingerConfigsEEE"
  },
  {
   "name" : "_ZN7android8hardware11configstore4V1_123BsSurfaceFlingerConfigsC2ENS_2spINS2_22ISurfaceFlingerConfigsEEE"
  },
  {
   "name" : "_ZN7android8hardware11configstore4V1_125BnHwSurfaceFlingerConfigs10onTransactEjRKNS0_6ParcelEPS4_jNSt3__18functionIFvRS4_EEE"
  },
  {
   "name" : "_ZN7android8hardware11configstore4V1_125BnHwSurfaceFlingerConfigs12getDebugInfoENSt3__18functionIFvRKNS_4hidl4base4V1_09DebugInfoEEEE"
  },
  {
   "name" : "_ZN7android8hardware11configstore4V1_125BnHwSurfaceFlingerConfigs31_hidl_primaryDisplayOrientationEPNS_4hidl4base4V1_08BnHwBaseERKNS0_6ParcelEPS9_NSt3__18functionIFvRS9_EEE"
  },
  {
   "name" : "_ZN7android8hardware11configstore4V1_125BnHwSurfaceFlingerConfigs4pingEv"
  },
  {
   "name" : "_ZN7android8hardware11configstore4V1_125BnHwSurfaceFlingerConfigsC1ERKNS_2spINS2_22ISurfaceFlingerConfigsEEE"
  },
  {
   "name" : "_ZN7android8hardware11configstore4V1_125BnHwSurfaceFlingerConfigsC2ERKNS_2spINS2_22ISurfaceFlingerConfigsEEE"
  },
  {
   "name" : "_ZN7android8hardware11configstore4V1_125BnHwSurfaceFlingerConfigsD0Ev"
  },
  {
   "name" : "_ZN7android8hardware11configstore4V1_125BnHwSurfaceFlingerConfigsD1Ev"
  },
  {
   "name" : "_ZN7android8hardware11configstore4V1_125BnHwSurfaceFlingerConfigsD2Ev"
  },
  {
   "name" : "_ZN7android8hardware11configstore4V1_125BpHwSurfaceFlingerConfigs11linkToDeathERKNS_2spINS0_20hidl_death_recipientEEEm"
  },
  {
   "name" : "_ZN7android8hardware11configstore4V1_125BpHwSurfaceFlingerConfigs12getDebugInfoENSt3__18functionIFvRKNS_4hidl4base4V1_09DebugInfoEEEE"
  },
  {
   "name" : "_ZN7android8hardware11configstore4V1_125BpHwSurfaceFlingerConfigs12getHashChainENSt3__18functionIFvRKNS0_8hidl_vecINS0_10hidl_arrayIhLm32EJEEEEEEEE"
  },
  {
   "name" : "_ZN7android8hardware11configstore4V1_125BpHwSurfaceFlingerConfigs12useVrFlingerENSt3__18functionIFvRKNS1_4V1_012OptionalBoolEEEE"
  },
  {
   "name" : "_ZN7android8hardware11configstore4V1_125BpHwSurfaceFlingerConfigs13hasHDRDisplayENSt3__18functionIFvRKNS1_4V1_012OptionalBoolEEEE"
  },
  {
   "name" : "_ZN7android8hardware11configstore4V1_125BpHwSurfaceFlingerConfigs13unlinkToDeathERKNS_2spINS0_20hidl_death_recipientEEE"
  },
  {
   "name" : "_ZN7android8hardware11configstore4V1_125BpHwSurfaceFlingerConfigs14interfaceChainENSt3__18functionIFvRKNS0_8hidl_vecINS0_11hidl_stringEEEEEE"
  },
  {
   "name" : "_ZN7android8hardware11configstore4V1_125BpHwSurfaceFlingerConfigs15onLastStrongRefEPKv"
  },
  {
   "name" : "_ZN7android8hardware11configstore4V1_125BpHwSurfaceFlingerConfigs16hasSyncFrameworkENSt3__18functionIFvRKNS1_4V1_012OptionalBoolEEEE"
  },
  {
   "name" : "_ZN7android8hardware11configstore4V1_125BpHwSurfaceFlingerConfigs17useHwcForRGBtoYUVENSt3__18functionIFvRKNS1_4V1_012OptionalBoolEEEE"
  },
  {
   "name" : "_ZN7android8hardware11configstore4V1_125BpHwSurfaceFlingerConfigs18useContextPriorityENSt3__18functionIFvRKNS1_4V1_012OptionalBoolEEEE"
  },
  {
   "name" : "_ZN7android8hardware11configstore4V1_125BpHwSurfaceFlingerConfigs19hasWideColorDisplayENSt3__18functionIFvRKNS1_4V1_012OptionalBoolEEEE"
  },
  {
   "name" : "_ZN7android8hardware11configstore4V1_125BpHwSurfaceFlingerConfigs19interfaceDescriptorENSt3__18functionIFvRKNS0_11hidl_stringEEEE"
  },
  {
   "name" : "_ZN7android8hardware11configstore4V1_125BpHwSurfaceFlingerConfigs21maxVirtualDisplaySizeENSt3__18functionIFvRKNS1_4V1_014OptionalUInt64EEEE"
  },
  {
   "name" : "_ZN7android8hardware11configstore4V1_125BpHwSurfaceFlingerConfigs21notifySyspropsChangedEv"
  },
  {
   "name" : "_ZN7android8hardware11configstore4V1_125BpHwSurfaceFlingerConfigs21setHALInstrumentationEv"
  },
  {
   "name" : "_ZN7android8hardware11configstore4V1_125BpHwSurfaceFlingerConfigs23vsyncEventPhaseOffsetNsENSt3__18functionIFvRKNS1_4V1_013OptionalInt64EEEE"
  },
  {
   "name" : "_ZN7android8hardware11configstore4V1_125BpHwSurfaceFlingerConfigs25primaryDisplayOrientationENSt3__18functionIFvRKNS2_26OptionalDisplayOrientationEEEE"
  },
  {
   "name" : "_ZN7android8hardware11configstore4V1_125BpHwSurfaceFlingerConfigs25vsyncSfEventPhaseOffsetNsENSt3__18functionIFvRKNS1_4V1_013OptionalInt64EEEE"
  },
  {
   "name" : "_ZN7android8hardware11configstore4V1_125BpHwSurfaceFlingerConfigs28presentTimeOffsetFromVSyncNsENSt3__18functionIFvRKNS1_4V1_013OptionalInt64EEEE"
  },
  {
   "name" : "_ZN7android8hardware11configstore4V1_125BpHwSurfaceFlingerConfigs29maxFrameBufferAcquiredBuffersENSt3__18functionIFvRKNS1_4V1_013OptionalInt64EEEE"
  },
  {
   "name" : "_ZN7android8hardware11configstore4V1_125BpHwSurfaceFlingerConfigs29startGraphicsAllocatorServiceENSt3__18functionIFvRKNS1_4V1_012OptionalBoolEEEE"
  },
  {
   "name" : "_ZN7android8hardware11configstore4V1_125BpHwSurfaceFlingerConfigs31_hidl_primaryDisplayOrientationEPNS0_10IInterfaceEPNS0_7details16HidlInstrumentorENSt3__18functionIFvRKNS2_26OptionalDisplayOrientationEEEE"
  },
  {
   "name" : "_ZN7android8hardware11configstore4V1_125BpHwSurfaceFlingerConfigs4pingEv"
  },
  {
   "name" : "_ZN7android8hardware11configstore4V1_125BpHwSurfaceFlingerConfigs5debugERKNS0_11hidl_handleERKNS0_8hidl_vecINS0_11hidl_stringEEE"
  },
  {
   "name" : "_ZN7android8hardware11configstore4V1_125BpHwSurfaceFlingerConfigsC1ERKNS_2spINS0_7IBinderEEE"
  },
  {
   "name" : "_ZN7android8hardware11configstore4V1_125BpHwSurfaceFlingerConfigsC2ERKNS_2spINS0_7IBinderEEE"
  },
  {
   "binding" : "weak",
   "name" : "_ZN7android8hardware7details13castInterfaceINS0_11configstore4V1_122ISurfaceFlingerConfigsENS3_4V1_022ISurfaceFlingerConfigsENS4_25BpHwSurfaceFlingerConfigsEEENS0_6ReturnINS_2spIT_EEEENSA_IT0_EEPKcb"
  },
  {
   "binding" : "weak",
   "name" : "_ZN7android8hardware7details13castInterfaceINS0_11configstore4V1_122ISurfaceFlingerConfigsENS_4hidl4base4V1_05IBaseENS4_25BpHwSurfaceFlingerConfigsEEENS0_6ReturnINS_2spIT_EEEENSC_IT0_EEPKcb"
  },
  {
   "binding" : "weak",
   "name" : "_ZN7android8hardware7details18getServiceInternalINS0_11configstore4V1_125BpHwSurfaceFlingerConfigsENS4_22ISurfaceFlingerConfigsEvvEENS_2spIT0_EERKNSt3__112basic_stringIcNSA_11char_traitsIcEENSA_9allocatorIcEEEEbb"
  },
  {
   "binding" : "weak",
   "name" : "_ZNKSt3__18functionIFvN7android8hardware7details16HidlInstrumentor20InstrumentationEventEPKcS7_S7_S7_PNS_6vectorIPvNS_9allocatorIS9_EEEEEEclES5_S7_S7_S7_S7_SD_"
  },
  {
   "binding" : "weak",
   "name" : "_ZNSt3__113__tree_removeIPNS_16__tree_node_baseIPvEEEEvT_S5_"
  },
  {
   "binding" : "weak",
   "name" : "_ZNSt3__127__tree_balance_after_insertIPNS_16__tree_node_baseIPvEEEEvT_S5_"
  },
  {
   "binding" : "weak",
   "name" : "_ZNSt3__16__treeINS_12__value_typeINS_12basic_stringIcNS_11char_traitsIcEENS_9allocatorIcEEEENS_8functionIFN7android2spINS9_4hidl4base4V1_05IBaseEEEPvEEEEENS_19__map_value_compareIS7_SJ_NS_4lessIS7_EELb1EEENS5_ISJ_EEE12__find_equalIS7_EERPNS_16__tree_node_baseISG_EERPNS_15__tree_end_nodeIST_EERKT_"
  },
  {
   "binding" : "weak",
   "name" : "_ZNSt3__16__treeINS_12__value_typeINS_12basic_stringIcNS_11char_traitsIcEENS_9allocatorIcEEEENS_8functionIFN7android2spINS9_4hidl4base4V1_05IBaseEEEPvEEEEENS_19__map_value_compareIS7_SJ_NS_4lessIS7_EELb1EEENS5_ISJ_EEE4findIS7_EENS_15__tree_iteratorISJ_PNS_11__tree_nodeISJ_SG_EElEERKT_"
  },
  {
   "binding" : "weak",
   "name" : "_ZNSt3__16__treeINS_12__value_typeINS_12basic_stringIcNS_11char_traitsIcEENS_9allocatorIcEEEENS_8functionIFN7android2spINS9_4hidl4base4V1_05IBaseEEEPvEEEEENS_19__map_value_compareIS7_SJ_NS_4lessIS7_EELb1EEENS5_ISJ_EEE5eraseENS_21__tree_const_iteratorISJ_PNS_11__tree_nodeISJ_SG_EElEE"
  },
  {
   "binding" : "weak",
   "name" : "_ZNSt3__16__treeINS_12__value_typeINS_12basic_stringIcNS_11char_traitsIcEENS_9allocatorIcEEEENS_8functionIFN7android2spINS9_8hardware7IBinderEEEPvEEEEENS_19__map_value_compareIS7_SH_NS_4lessIS7_EELb1EEENS5_ISH_EEE12__find_equalIS7_EERPNS_16__tree_node_baseISE_EERPNS_15__tree_end_nodeISR_EERKT_"
  },
  {
   "binding" : "weak",
   "name" : "_ZNSt3__16__treeINS_12__value_typeINS_12basic_stringIcNS_11char_traitsIcEENS_9allocatorIcEEEENS_8functionIFN7android2spINS9_8hardware7IBinderEEEPvEEEEENS_19__map_value_compareIS7_SH_NS_4lessIS7_EELb1EEENS5_ISH_EEE4findIS7_EENS_15__tree_iteratorISH_PNS_11__tree_nodeISH_SE_EElEERKT_"
  },
  {
   "binding" : "weak",
   "name" : "_ZNSt3__16__treeINS_12__value_typeINS_12basic_stringIcNS_11char_traitsIcEENS_9allocatorIcEEEENS_8functionIFN7android2spINS9_8hardware7IBinderEEEPvEEEEENS_19__map_value_compareIS7_SH_NS_4lessIS7_EELb1EEENS5_ISH_EEE5eraseENS_21__tree_const_iteratorISH_PNS_11__tree_nodeISH_SE_EElEE"
  },
  {
   "binding" : "weak",
   "name" : "_ZNSt3__16vectorIN7android2spINS1_8hardware27hidl_binder_death_recipientEEENS_9allocatorIS5_EEE21__push_back_slow_pathIS5_EEvOT_"
  },
  {
   "binding" : "weak",
   "name" : "_ZNSt3__16vectorINS_8functionIFvN7android8hardware7details16HidlInstrumentor20InstrumentationEventEPKcS8_S8_S8_PNS0_IPvNS_9allocatorIS9_EEEEEEENSA_ISF_EEEC2ERKSH_"
  },
  {
   "binding" : "weak",
   "name" : "_ZNSt3__16vectorIPvNS_9allocatorIS1_EEE21__push_back_slow_pathIS1_EEvOT_"
  },
  {
   "name" : "_ZThn16_N7android8hardware11configstore4V1_125BpHwSurfaceFlingerConfigs15onLastStrongRefEPKv"
  },
  {
   "name" : "_ZThn32_N7android8hardware11configstore4V1_125BnHwSurfaceFlingerConfigsD0Ev"
  },
  {
   "name" : "_ZThn32_N7android8hardware11configstore4V1_125BnHwSurfaceFlingerConfigsD1Ev"
  },
  {
   "name" : "_ZTv0_n24_N7android8hardware11configstore4V1_125BnHwSurfaceFlingerConfigsD0Ev"
  },
  {
   "name" : "_ZTv0_n24_N7android8hardware11configstore4V1_125BnHwSurfaceFlingerConfigsD1Ev"
  },
  {
   "name" : "_ZTv0_n40_N7android8hardware11configstore4V1_125BpHwSurfaceFlingerConfigs15onLastStrongRefEPKv"
  }
 ],
 "elf_objects" :
 [
  {
   "name" : "_ZN7android8hardware11configstore4V1_122ISurfaceFlingerConfigs10descriptorE"
  },
  {
   "name" : "_ZTCN7android8hardware11configstore4V1_122ISurfaceFlingerConfigsE0_NS1_4V1_022ISurfaceFlingerConfigsE"
  },
  {
   "name" : "_ZTCN7android8hardware11configstore4V1_122ISurfaceFlingerConfigsE0_NS_4hidl4base4V1_05IBaseE"
  },
  {
   "binding" : "weak",
   "name" : "_ZTCN7android8hardware11configstore4V1_123BsSurfaceFlingerConfigsE0_NS2_22ISurfaceFlingerConfigsE"
  },
  {
   "name" : "_ZTCN7android8hardware11configstore4V1_125BnHwSurfaceFlingerConfigsE0_NS0_7IBinderE"
  },
  {
   "name" : "_ZTCN7android8hardware11configstore4V1_125BnHwSurfaceFlingerConfigsE0_NS0_9BHwBinderE"
  },
  {
   "name" : "_ZTCN7android8hardware11configstore4V1_125BnHwSurfaceFlingerConfigsE0_NS_4hidl4base4V1_08BnHwBaseE"
  },
  {
   "name" : "_ZTCN7android8hardware11configstore4V1_125BpHwSurfaceFlingerConfigsE0_NS0_11BpInterfaceINS2_22ISurfaceFlingerConfigsEEE"
  },
  {
   "name" : "_ZTCN7android8hardware11configstore4V1_125BpHwSurfaceFlingerConfigsE0_NS1_4V1_022ISurfaceFlingerConfigsE"
  },
  {
   "name" : "_ZTCN7android8hardware11configstore4V1_125BpHwSurfaceFlingerConfigsE0_NS2_22ISurfaceFlingerConfigsE"
  },
  {
   "name" : "_ZTCN7android8hardware11configstore4V1_125BpHwSurfaceFlingerConfigsE0_NS_4hidl4base4V1_05IBaseE"
  },
  {
   "name" : "_ZTCN7android8hardware11configstore4V1_125BpHwSurfaceFlingerConfigsE16_NS0_11BpHwRefBaseE"
  },
  {
   "name" : "_ZTCN7android8hardware11configstore4V1_125BpHwSurfaceFlingerConfigsE8_NS0_10IInterfaceE"
  },
  {
   "name" : "_ZTTN7android8hardware11configstore4V1_122ISurfaceFlingerConfigsE"
  },
  {
   "name" : "_ZTTN7android8hardware11configstore4V1_125BnHwSurfaceFlingerConfigsE"
  },
  {
   "name" : "_ZTTN7android8hardware11configstore4V1_125BpHwSurfaceFlingerConfigsE"
  },
  {
   "name" : "_ZTVN7android8hardware11configstore4V1_122ISurfaceFlingerConfigsE"
  },
  {
   "binding" : "weak",
   "name" : "_ZTVN7android8hardware11configstore4V1_123BsSurfaceFlingerConfigsE"
  },
  {
   "name" : "_ZTVN7android8hardware11configstore4V1_125BnHwSurfaceFlingerConfigsE"
  },
  {
   "name" : "_ZTVN7android8hardware11configstore4V1_125BpHwSurfaceFlingerConfigsE"
  }
 ],
 "enum_types" : [],
 "function_types" : [],
 "functions" : [],
 "global_vars" : [],
 "lvalue_reference_types" : [],
 "pointer_types" : [],
 "qualified_types" : [],
 "record_types" : [],
 "rvalue_reference_types" : []
}
