{
 "array_types" : [],
 "builtin_types" : [],
 "elf_functions" :
 [
  {
   "binding" : "weak",
   "name" : "_ZN3ndk12BnCInterfaceIN4aidl7android8hardware10authsecret11IAuthSecretEE8asBinderEv"
  },
  {
   "binding" : "weak",
   "name" : "_ZN3ndk12BpCInterfaceIN4aidl7android8hardware10authsecret11IAuthSecretEE8asBinderEv"
  },
  {
   "name" : "_ZN4aidl7android8hardware10authsecret11IAuthSecret10fromBinderERKN3ndk10SpAIBinderE"
  },
  {
   "name" : "_ZN4aidl7android8hardware10authsecret11IAuthSecret13writeToParcelEP7AParcelRKNSt3__110shared_ptrIS3_EE"
  },
  {
   "name" : "_ZN4aidl7android8hardware10authsecret11IAuthSecret14getDefaultImplEv"
  },
  {
   "name" : "_ZN4aidl7android8hardware10authsecret11IAuthSecret14readFromParcelEPK7AParcelPNSt3__110shared_ptrIS3_EE"
  },
  {
   "name" : "_ZN4aidl7android8hardware10authsecret11IAuthSecret14setDefaultImplERKNSt3__110shared_ptrIS3_EE"
  },
  {
   "name" : "_ZN4aidl7android8hardware10authsecret11IAuthSecretC2Ev"
  },
  {
   "name" : "_ZN4aidl7android8hardware10authsecret11IAuthSecretD0Ev"
  },
  {
   "name" : "_ZN4aidl7android8hardware10authsecret11IAuthSecretD1Ev"
  },
  {
   "name" : "_ZN4aidl7android8hardware10authsecret11IAuthSecretD2Ev"
  },
  {
   "name" : "_ZN4aidl7android8hardware10authsecret12BnAuthSecret12createBinderEv"
  },
  {
   "name" : "_ZN4aidl7android8hardware10authsecret12BnAuthSecret16getInterfaceHashEPNSt3__112basic_stringIcNS4_11char_traitsIcEENS4_9allocatorIcEEEE"
  },
  {
   "name" : "_ZN4aidl7android8hardware10authsecret12BnAuthSecret19getInterfaceVersionEPi"
  },
  {
   "name" : "_ZN4aidl7android8hardware10authsecret12BnAuthSecretC2Ev"
  },
  {
   "name" : "_ZN4aidl7android8hardware10authsecret12BnAuthSecretD0Ev"
  },
  {
   "name" : "_ZN4aidl7android8hardware10authsecret12BnAuthSecretD1Ev"
  },
  {
   "name" : "_ZN4aidl7android8hardware10authsecret12BnAuthSecretD2Ev"
  },
  {
   "name" : "_ZN4aidl7android8hardware10authsecret12BpAuthSecret16getInterfaceHashEPNSt3__112basic_stringIcNS4_11char_traitsIcEENS4_9allocatorIcEEEE"
  },
  {
   "name" : "_ZN4aidl7android8hardware10authsecret12BpAuthSecret19getInterfaceVersionEPi"
  },
  {
   "name" : "_ZN4aidl7android8hardware10authsecret12BpAuthSecret24setPrimaryUserCredentialERKNSt3__16vectorIhNS4_9allocatorIhEEEE"
  },
  {
   "name" : "_ZN4aidl7android8hardware10authsecret12BpAuthSecretC1ERKN3ndk10SpAIBinderE"
  },
  {
   "name" : "_ZN4aidl7android8hardware10authsecret12BpAuthSecretC2ERKN3ndk10SpAIBinderE"
  },
  {
   "name" : "_ZN4aidl7android8hardware10authsecret12BpAuthSecretD0Ev"
  },
  {
   "name" : "_ZN4aidl7android8hardware10authsecret12BpAuthSecretD1Ev"
  },
  {
   "name" : "_ZN4aidl7android8hardware10authsecret12BpAuthSecretD2Ev"
  },
  {
   "name" : "_ZN4aidl7android8hardware10authsecret18IAuthSecretDefault16getInterfaceHashEPNSt3__112basic_stringIcNS4_11char_traitsIcEENS4_9allocatorIcEEEE"
  },
  {
   "name" : "_ZN4aidl7android8hardware10authsecret18IAuthSecretDefault19getInterfaceVersionEPi"
  },
  {
   "name" : "_ZN4aidl7android8hardware10authsecret18IAuthSecretDefault24setPrimaryUserCredentialERKNSt3__16vectorIhNS4_9allocatorIhEEEE"
  },
  {
   "name" : "_ZN4aidl7android8hardware10authsecret18IAuthSecretDefault8asBinderEv"
  },
  {
   "name" : "_ZN4aidl7android8hardware10authsecret18IAuthSecretDefault8isRemoteEv"
  },
  {
   "binding" : "weak",
   "name" : "_ZNSt3__110shared_ptrIN4aidl7android8hardware10authsecret11IAuthSecretEED2Ev"
  },
  {
   "binding" : "weak",
   "name" : "_ZNSt3__120__shared_ptr_pointerIPN3ndk13SharedRefBaseENS_14default_deleteIS2_EENS_9allocatorIS2_EEE16__on_zero_sharedEv"
  },
  {
   "binding" : "weak",
   "name" : "_ZNSt3__120__shared_ptr_pointerIPN3ndk13SharedRefBaseENS_14default_deleteIS2_EENS_9allocatorIS2_EEE21__on_zero_shared_weakEv"
  },
  {
   "binding" : "weak",
   "name" : "_ZNSt3__16vectorIaNS_9allocatorIaEEE8__appendEm"
  }
 ],
 "elf_objects" :
 [
  {
   "binding" : "weak",
   "name" : "_ZGVN4aidl7android8hardware10authsecret11IAuthSecret4hashE"
  },
  {
   "name" : "_ZN4aidl7android8hardware10authsecret11IAuthSecret10descriptorE"
  },
  {
   "name" : "_ZN4aidl7android8hardware10authsecret11IAuthSecret12default_implE"
  },
  {
   "binding" : "weak",
   "name" : "_ZN4aidl7android8hardware10authsecret11IAuthSecret4hashE"
  },
  {
   "binding" : "weak",
   "name" : "_ZTVN3ndk12BnCInterfaceIN4aidl7android8hardware10authsecret11IAuthSecretEEE"
  },
  {
   "binding" : "weak",
   "name" : "_ZTVN3ndk12BpCInterfaceIN4aidl7android8hardware10authsecret11IAuthSecretEEE"
  },
  {
   "binding" : "weak",
   "name" : "_ZTVN3ndk13SharedRefBaseE"
  },
  {
   "name" : "_ZTVN4aidl7android8hardware10authsecret11IAuthSecretE"
  },
  {
   "name" : "_ZTVN4aidl7android8hardware10authsecret12BnAuthSecretE"
  },
  {
   "name" : "_ZTVN4aidl7android8hardware10authsecret12BpAuthSecretE"
  },
  {
   "name" : "_ZTVN4aidl7android8hardware10authsecret18IAuthSecretDefaultE"
  },
  {
   "binding" : "weak",
   "name" : "_ZTVNSt3__120__shared_ptr_pointerIPN3ndk13SharedRefBaseENS_14default_deleteIS2_EENS_9allocatorIS2_EEEE"
  }
 ],
 "enum_types" : [],
 "function_types" : [],
 "functions" : [],
 "global_vars" : [],
 "lvalue_reference_types" : [],
 "pointer_types" : [],
 "qualified_types" : [],
 "record_types" : [],
 "rvalue_reference_types" : []
}
