{
 "array_types" : [],
 "builtin_types" : [],
 "elf_functions" :
 [
  {
   "binding" : "weak",
   "name" : "_ZN3ndk12BnCInterfaceIN4aidl7android8hardware4gnss13IGnssCallbackEE8asBinderEv"
  },
  {
   "binding" : "weak",
   "name" : "_ZN3ndk12BnCInterfaceIN4aidl7android8hardware4gnss17IGnssPsdsCallbackEE8asBinderEv"
  },
  {
   "binding" : "weak",
   "name" : "_ZN3ndk12BnCInterfaceIN4aidl7android8hardware4gnss18IGnssConfigurationEE8asBinderEv"
  },
  {
   "binding" : "weak",
   "name" : "_ZN3ndk12BnCInterfaceIN4aidl7android8hardware4gnss20IGnssPowerIndicationEE8asBinderEv"
  },
  {
   "binding" : "weak",
   "name" : "_ZN3ndk12BnCInterfaceIN4aidl7android8hardware4gnss24IGnssMeasurementCallbackEE8asBinderEv"
  },
  {
   "binding" : "weak",
   "name" : "_ZN3ndk12BnCInterfaceIN4aidl7android8hardware4gnss25IGnssMeasurementInterfaceEE8asBinderEv"
  },
  {
   "binding" : "weak",
   "name" : "_ZN3ndk12BnCInterfaceIN4aidl7android8hardware4gnss28IGnssPowerIndicationCallbackEE8asBinderEv"
  },
  {
   "binding" : "weak",
   "name" : "_ZN3ndk12BnCInterfaceIN4aidl7android8hardware4gnss5IGnssEE8asBinderEv"
  },
  {
   "binding" : "weak",
   "name" : "_ZN3ndk12BnCInterfaceIN4aidl7android8hardware4gnss9IGnssPsdsEE8asBinderEv"
  },
  {
   "binding" : "weak",
   "name" : "_ZN3ndk12BpCInterfaceIN4aidl7android8hardware4gnss13IGnssCallbackEE8asBinderEv"
  },
  {
   "binding" : "weak",
   "name" : "_ZN3ndk12BpCInterfaceIN4aidl7android8hardware4gnss17IGnssPsdsCallbackEE8asBinderEv"
  },
  {
   "binding" : "weak",
   "name" : "_ZN3ndk12BpCInterfaceIN4aidl7android8hardware4gnss18IGnssConfigurationEE8asBinderEv"
  },
  {
   "binding" : "weak",
   "name" : "_ZN3ndk12BpCInterfaceIN4aidl7android8hardware4gnss20IGnssPowerIndicationEE8asBinderEv"
  },
  {
   "binding" : "weak",
   "name" : "_ZN3ndk12BpCInterfaceIN4aidl7android8hardware4gnss24IGnssMeasurementCallbackEE8asBinderEv"
  },
  {
   "binding" : "weak",
   "name" : "_ZN3ndk12BpCInterfaceIN4aidl7android8hardware4gnss25IGnssMeasurementInterfaceEE8asBinderEv"
  },
  {
   "binding" : "weak",
   "name" : "_ZN3ndk12BpCInterfaceIN4aidl7android8hardware4gnss28IGnssPowerIndicationCallbackEE8asBinderEv"
  },
  {
   "binding" : "weak",
   "name" : "_ZN3ndk12BpCInterfaceIN4aidl7android8hardware4gnss5IGnssEE8asBinderEv"
  },
  {
   "binding" : "weak",
   "name" : "_ZN3ndk12BpCInterfaceIN4aidl7android8hardware4gnss9IGnssPsdsEE8asBinderEv"
  },
  {
   "binding" : "weak",
   "name" : "_ZN3ndk38AParcel_readStdVectorParcelableElementIN4aidl7android8hardware4gnss15GnssMeasurementEEEiPK7AParcelPvj"
  },
  {
   "binding" : "weak",
   "name" : "_ZN3ndk38AParcel_readStdVectorParcelableElementIN4aidl7android8hardware4gnss17BlocklistedSourceEEEiPK7AParcelPvj"
  },
  {
   "binding" : "weak",
   "name" : "_ZN3ndk38AParcel_readStdVectorParcelableElementIN4aidl7android8hardware4gnss17CorrelationVectorEEEiPK7AParcelPvj"
  },
  {
   "binding" : "weak",
   "name" : "_ZN3ndk39AParcel_writeStdVectorParcelableElementIN4aidl7android8hardware4gnss15GnssMeasurementEEEiP7AParcelPKvj"
  },
  {
   "binding" : "weak",
   "name" : "_ZN3ndk39AParcel_writeStdVectorParcelableElementIN4aidl7android8hardware4gnss17BlocklistedSourceEEEiP7AParcelPKvj"
  },
  {
   "binding" : "weak",
   "name" : "_ZN3ndk39AParcel_writeStdVectorParcelableElementIN4aidl7android8hardware4gnss17CorrelationVectorEEEiP7AParcelPKvj"
  },
  {
   "name" : "_ZN4aidl7android8hardware4gnss10BnGnssPsds12createBinderEv"
  },
  {
   "name" : "_ZN4aidl7android8hardware4gnss10BnGnssPsds16getInterfaceHashEPNSt3__112basic_stringIcNS4_11char_traitsIcEENS4_9allocatorIcEEEE"
  },
  {
   "name" : "_ZN4aidl7android8hardware4gnss10BnGnssPsds19getInterfaceVersionEPi"
  },
  {
   "name" : "_ZN4aidl7android8hardware4gnss10BnGnssPsdsC2Ev"
  },
  {
   "name" : "_ZN4aidl7android8hardware4gnss10BnGnssPsdsD0Ev"
  },
  {
   "name" : "_ZN4aidl7android8hardware4gnss10BnGnssPsdsD1Ev"
  },
  {
   "name" : "_ZN4aidl7android8hardware4gnss10BnGnssPsdsD2Ev"
  },
  {
   "name" : "_ZN4aidl7android8hardware4gnss10BpGnssPsds11setCallbackERKNSt3__110shared_ptrINS2_17IGnssPsdsCallbackEEE"
  },
  {
   "name" : "_ZN4aidl7android8hardware4gnss10BpGnssPsds14injectPsdsDataENS2_8PsdsTypeERKNSt3__16vectorIhNS5_9allocatorIhEEEE"
  },
  {
   "name" : "_ZN4aidl7android8hardware4gnss10BpGnssPsds16getInterfaceHashEPNSt3__112basic_stringIcNS4_11char_traitsIcEENS4_9allocatorIcEEEE"
  },
  {
   "name" : "_ZN4aidl7android8hardware4gnss10BpGnssPsds19getInterfaceVersionEPi"
  },
  {
   "name" : "_ZN4aidl7android8hardware4gnss10BpGnssPsdsC1ERKN3ndk10SpAIBinderE"
  },
  {
   "name" : "_ZN4aidl7android8hardware4gnss10BpGnssPsdsC2ERKN3ndk10SpAIBinderE"
  },
  {
   "name" : "_ZN4aidl7android8hardware4gnss10BpGnssPsdsD0Ev"
  },
  {
   "name" : "_ZN4aidl7android8hardware4gnss10BpGnssPsdsD1Ev"
  },
  {
   "name" : "_ZN4aidl7android8hardware4gnss10BpGnssPsdsD2Ev"
  },
  {
   "name" : "_ZN4aidl7android8hardware4gnss12IGnssDefault11setCallbackERKNSt3__110shared_ptrINS2_13IGnssCallbackEEE"
  },
  {
   "name" : "_ZN4aidl7android8hardware4gnss12IGnssDefault16getExtensionPsdsEPNSt3__110shared_ptrINS2_9IGnssPsdsEEE"
  },
  {
   "name" : "_ZN4aidl7android8hardware4gnss12IGnssDefault16getInterfaceHashEPNSt3__112basic_stringIcNS4_11char_traitsIcEENS4_9allocatorIcEEEE"
  },
  {
   "name" : "_ZN4aidl7android8hardware4gnss12IGnssDefault19getInterfaceVersionEPi"
  },
  {
   "name" : "_ZN4aidl7android8hardware4gnss12IGnssDefault27getExtensionGnssMeasurementEPNSt3__110shared_ptrINS2_25IGnssMeasurementInterfaceEEE"
  },
  {
   "name" : "_ZN4aidl7android8hardware4gnss12IGnssDefault29getExtensionGnssConfigurationEPNSt3__110shared_ptrINS2_18IGnssConfigurationEEE"
  },
  {
   "name" : "_ZN4aidl7android8hardware4gnss12IGnssDefault31getExtensionGnssPowerIndicationEPNSt3__110shared_ptrINS2_20IGnssPowerIndicationEEE"
  },
  {
   "name" : "_ZN4aidl7android8hardware4gnss12IGnssDefault5closeEv"
  },
  {
   "name" : "_ZN4aidl7android8hardware4gnss12IGnssDefault8asBinderEv"
  },
  {
   "name" : "_ZN4aidl7android8hardware4gnss12IGnssDefault8isRemoteEv"
  },
  {
   "name" : "_ZN4aidl7android8hardware4gnss12SatellitePvt14readFromParcelEPK7AParcel"
  },
  {
   "name" : "_ZN4aidl7android8hardware4gnss13IGnssCallback10fromBinderERKN3ndk10SpAIBinderE"
  },
  {
   "name" : "_ZN4aidl7android8hardware4gnss13IGnssCallback13writeToParcelEP7AParcelRKNSt3__110shared_ptrIS3_EE"
  },
  {
   "name" : "_ZN4aidl7android8hardware4gnss13IGnssCallback14getDefaultImplEv"
  },
  {
   "name" : "_ZN4aidl7android8hardware4gnss13IGnssCallback14readFromParcelEPK7AParcelPNSt3__110shared_ptrIS3_EE"
  },
  {
   "name" : "_ZN4aidl7android8hardware4gnss13IGnssCallback14setDefaultImplERKNSt3__110shared_ptrIS3_EE"
  },
  {
   "name" : "_ZN4aidl7android8hardware4gnss13IGnssCallbackC2Ev"
  },
  {
   "name" : "_ZN4aidl7android8hardware4gnss13IGnssCallbackD0Ev"
  },
  {
   "name" : "_ZN4aidl7android8hardware4gnss13IGnssCallbackD1Ev"
  },
  {
   "name" : "_ZN4aidl7android8hardware4gnss13IGnssCallbackD2Ev"
  },
  {
   "name" : "_ZN4aidl7android8hardware4gnss14BnGnssCallback12createBinderEv"
  },
  {
   "name" : "_ZN4aidl7android8hardware4gnss14BnGnssCallback16getInterfaceHashEPNSt3__112basic_stringIcNS4_11char_traitsIcEENS4_9allocatorIcEEEE"
  },
  {
   "name" : "_ZN4aidl7android8hardware4gnss14BnGnssCallback19getInterfaceVersionEPi"
  },
  {
   "name" : "_ZN4aidl7android8hardware4gnss14BnGnssCallbackC2Ev"
  },
  {
   "name" : "_ZN4aidl7android8hardware4gnss14BnGnssCallbackD0Ev"
  },
  {
   "name" : "_ZN4aidl7android8hardware4gnss14BnGnssCallbackD1Ev"
  },
  {
   "name" : "_ZN4aidl7android8hardware4gnss14BnGnssCallbackD2Ev"
  },
  {
   "name" : "_ZN4aidl7android8hardware4gnss14BpGnssCallback16getInterfaceHashEPNSt3__112basic_stringIcNS4_11char_traitsIcEENS4_9allocatorIcEEEE"
  },
  {
   "name" : "_ZN4aidl7android8hardware4gnss14BpGnssCallback19getInterfaceVersionEPi"
  },
  {
   "name" : "_ZN4aidl7android8hardware4gnss14BpGnssCallback21gnssSetCapabilitiesCbEi"
  },
  {
   "name" : "_ZN4aidl7android8hardware4gnss14BpGnssCallbackC1ERKN3ndk10SpAIBinderE"
  },
  {
   "name" : "_ZN4aidl7android8hardware4gnss14BpGnssCallbackC2ERKN3ndk10SpAIBinderE"
  },
  {
   "name" : "_ZN4aidl7android8hardware4gnss14BpGnssCallbackD0Ev"
  },
  {
   "name" : "_ZN4aidl7android8hardware4gnss14BpGnssCallbackD1Ev"
  },
  {
   "name" : "_ZN4aidl7android8hardware4gnss14BpGnssCallbackD2Ev"
  },
  {
   "name" : "_ZN4aidl7android8hardware4gnss14GnssPowerStats14readFromParcelEPK7AParcel"
  },
  {
   "name" : "_ZN4aidl7android8hardware4gnss14GnssSignalType14readFromParcelEPK7AParcel"
  },
  {
   "name" : "_ZN4aidl7android8hardware4gnss15ElapsedRealtime14readFromParcelEPK7AParcel"
  },
  {
   "name" : "_ZN4aidl7android8hardware4gnss15GnssMeasurement14readFromParcelEPK7AParcel"
  },
  {
   "name" : "_ZN4aidl7android8hardware4gnss16IGnssPsdsDefault11setCallbackERKNSt3__110shared_ptrINS2_17IGnssPsdsCallbackEEE"
  },
  {
   "name" : "_ZN4aidl7android8hardware4gnss16IGnssPsdsDefault14injectPsdsDataENS2_8PsdsTypeERKNSt3__16vectorIhNS5_9allocatorIhEEEE"
  },
  {
   "name" : "_ZN4aidl7android8hardware4gnss16IGnssPsdsDefault16getInterfaceHashEPNSt3__112basic_stringIcNS4_11char_traitsIcEENS4_9allocatorIcEEEE"
  },
  {
   "name" : "_ZN4aidl7android8hardware4gnss16IGnssPsdsDefault19getInterfaceVersionEPi"
  },
  {
   "name" : "_ZN4aidl7android8hardware4gnss16IGnssPsdsDefault8asBinderEv"
  },
  {
   "name" : "_ZN4aidl7android8hardware4gnss16IGnssPsdsDefault8isRemoteEv"
  },
  {
   "name" : "_ZN4aidl7android8hardware4gnss17BlocklistedSource14readFromParcelEPK7AParcel"
  },
  {
   "name" : "_ZN4aidl7android8hardware4gnss17CorrelationVector14readFromParcelEPK7AParcel"
  },
  {
   "name" : "_ZN4aidl7android8hardware4gnss17IGnssPsdsCallback10fromBinderERKN3ndk10SpAIBinderE"
  },
  {
   "name" : "_ZN4aidl7android8hardware4gnss17IGnssPsdsCallback13writeToParcelEP7AParcelRKNSt3__110shared_ptrIS3_EE"
  },
  {
   "name" : "_ZN4aidl7android8hardware4gnss17IGnssPsdsCallback14getDefaultImplEv"
  },
  {
   "name" : "_ZN4aidl7android8hardware4gnss17IGnssPsdsCallback14readFromParcelEPK7AParcelPNSt3__110shared_ptrIS3_EE"
  },
  {
   "name" : "_ZN4aidl7android8hardware4gnss17IGnssPsdsCallback14setDefaultImplERKNSt3__110shared_ptrIS3_EE"
  },
  {
   "name" : "_ZN4aidl7android8hardware4gnss17IGnssPsdsCallbackC2Ev"
  },
  {
   "name" : "_ZN4aidl7android8hardware4gnss17IGnssPsdsCallbackD0Ev"
  },
  {
   "name" : "_ZN4aidl7android8hardware4gnss17IGnssPsdsCallbackD1Ev"
  },
  {
   "name" : "_ZN4aidl7android8hardware4gnss17IGnssPsdsCallbackD2Ev"
  },
  {
   "name" : "_ZN4aidl7android8hardware4gnss18BnGnssPsdsCallback12createBinderEv"
  },
  {
   "name" : "_ZN4aidl7android8hardware4gnss18BnGnssPsdsCallback16getInterfaceHashEPNSt3__112basic_stringIcNS4_11char_traitsIcEENS4_9allocatorIcEEEE"
  },
  {
   "name" : "_ZN4aidl7android8hardware4gnss18BnGnssPsdsCallback19getInterfaceVersionEPi"
  },
  {
   "name" : "_ZN4aidl7android8hardware4gnss18BnGnssPsdsCallbackC2Ev"
  },
  {
   "name" : "_ZN4aidl7android8hardware4gnss18BnGnssPsdsCallbackD0Ev"
  },
  {
   "name" : "_ZN4aidl7android8hardware4gnss18BnGnssPsdsCallbackD1Ev"
  },
  {
   "name" : "_ZN4aidl7android8hardware4gnss18BnGnssPsdsCallbackD2Ev"
  },
  {
   "name" : "_ZN4aidl7android8hardware4gnss18BpGnssPsdsCallback16getInterfaceHashEPNSt3__112basic_stringIcNS4_11char_traitsIcEENS4_9allocatorIcEEEE"
  },
  {
   "name" : "_ZN4aidl7android8hardware4gnss18BpGnssPsdsCallback17downloadRequestCbENS2_8PsdsTypeE"
  },
  {
   "name" : "_ZN4aidl7android8hardware4gnss18BpGnssPsdsCallback19getInterfaceVersionEPi"
  },
  {
   "name" : "_ZN4aidl7android8hardware4gnss18BpGnssPsdsCallbackC1ERKN3ndk10SpAIBinderE"
  },
  {
   "name" : "_ZN4aidl7android8hardware4gnss18BpGnssPsdsCallbackC2ERKN3ndk10SpAIBinderE"
  },
  {
   "name" : "_ZN4aidl7android8hardware4gnss18BpGnssPsdsCallbackD0Ev"
  },
  {
   "name" : "_ZN4aidl7android8hardware4gnss18BpGnssPsdsCallbackD1Ev"
  },
  {
   "name" : "_ZN4aidl7android8hardware4gnss18BpGnssPsdsCallbackD2Ev"
  },
  {
   "name" : "_ZN4aidl7android8hardware4gnss18IGnssConfiguration10fromBinderERKN3ndk10SpAIBinderE"
  },
  {
   "name" : "_ZN4aidl7android8hardware4gnss18IGnssConfiguration13writeToParcelEP7AParcelRKNSt3__110shared_ptrIS3_EE"
  },
  {
   "name" : "_ZN4aidl7android8hardware4gnss18IGnssConfiguration14getDefaultImplEv"
  },
  {
   "name" : "_ZN4aidl7android8hardware4gnss18IGnssConfiguration14readFromParcelEPK7AParcelPNSt3__110shared_ptrIS3_EE"
  },
  {
   "name" : "_ZN4aidl7android8hardware4gnss18IGnssConfiguration14setDefaultImplERKNSt3__110shared_ptrIS3_EE"
  },
  {
   "name" : "_ZN4aidl7android8hardware4gnss18IGnssConfigurationC2Ev"
  },
  {
   "name" : "_ZN4aidl7android8hardware4gnss18IGnssConfigurationD0Ev"
  },
  {
   "name" : "_ZN4aidl7android8hardware4gnss18IGnssConfigurationD1Ev"
  },
  {
   "name" : "_ZN4aidl7android8hardware4gnss18IGnssConfigurationD2Ev"
  },
  {
   "name" : "_ZN4aidl7android8hardware4gnss18SatelliteClockInfo14readFromParcelEPK7AParcel"
  },
  {
   "name" : "_ZN4aidl7android8hardware4gnss19BnGnssConfiguration12createBinderEv"
  },
  {
   "name" : "_ZN4aidl7android8hardware4gnss19BnGnssConfiguration16getInterfaceHashEPNSt3__112basic_stringIcNS4_11char_traitsIcEENS4_9allocatorIcEEEE"
  },
  {
   "name" : "_ZN4aidl7android8hardware4gnss19BnGnssConfiguration19getInterfaceVersionEPi"
  },
  {
   "name" : "_ZN4aidl7android8hardware4gnss19BnGnssConfigurationC2Ev"
  },
  {
   "name" : "_ZN4aidl7android8hardware4gnss19BnGnssConfigurationD0Ev"
  },
  {
   "name" : "_ZN4aidl7android8hardware4gnss19BnGnssConfigurationD1Ev"
  },
  {
   "name" : "_ZN4aidl7android8hardware4gnss19BnGnssConfigurationD2Ev"
  },
  {
   "name" : "_ZN4aidl7android8hardware4gnss19BpGnssConfiguration11setSuplModeEi"
  },
  {
   "name" : "_ZN4aidl7android8hardware4gnss19BpGnssConfiguration12setBlocklistERKNSt3__16vectorINS2_17BlocklistedSourceENS4_9allocatorIS6_EEEE"
  },
  {
   "name" : "_ZN4aidl7android8hardware4gnss19BpGnssConfiguration13setLppProfileEi"
  },
  {
   "name" : "_ZN4aidl7android8hardware4gnss19BpGnssConfiguration14setSuplVersionEi"
  },
  {
   "name" : "_ZN4aidl7android8hardware4gnss19BpGnssConfiguration16getInterfaceHashEPNSt3__112basic_stringIcNS4_11char_traitsIcEENS4_9allocatorIcEEEE"
  },
  {
   "name" : "_ZN4aidl7android8hardware4gnss19BpGnssConfiguration17setEsExtensionSecEi"
  },
  {
   "name" : "_ZN4aidl7android8hardware4gnss19BpGnssConfiguration19getInterfaceVersionEPi"
  },
  {
   "name" : "_ZN4aidl7android8hardware4gnss19BpGnssConfiguration19setEmergencySuplPdnEb"
  },
  {
   "name" : "_ZN4aidl7android8hardware4gnss19BpGnssConfiguration29setGlonassPositioningProtocolEi"
  },
  {
   "name" : "_ZN4aidl7android8hardware4gnss19BpGnssConfigurationC1ERKN3ndk10SpAIBinderE"
  },
  {
   "name" : "_ZN4aidl7android8hardware4gnss19BpGnssConfigurationC2ERKN3ndk10SpAIBinderE"
  },
  {
   "name" : "_ZN4aidl7android8hardware4gnss19BpGnssConfigurationD0Ev"
  },
  {
   "name" : "_ZN4aidl7android8hardware4gnss19BpGnssConfigurationD1Ev"
  },
  {
   "name" : "_ZN4aidl7android8hardware4gnss19BpGnssConfigurationD2Ev"
  },
  {
   "name" : "_ZN4aidl7android8hardware4gnss20IGnssCallbackDefault16getInterfaceHashEPNSt3__112basic_stringIcNS4_11char_traitsIcEENS4_9allocatorIcEEEE"
  },
  {
   "name" : "_ZN4aidl7android8hardware4gnss20IGnssCallbackDefault19getInterfaceVersionEPi"
  },
  {
   "name" : "_ZN4aidl7android8hardware4gnss20IGnssCallbackDefault21gnssSetCapabilitiesCbEi"
  },
  {
   "name" : "_ZN4aidl7android8hardware4gnss20IGnssCallbackDefault8asBinderEv"
  },
  {
   "name" : "_ZN4aidl7android8hardware4gnss20IGnssCallbackDefault8isRemoteEv"
  },
  {
   "name" : "_ZN4aidl7android8hardware4gnss20IGnssPowerIndication10fromBinderERKN3ndk10SpAIBinderE"
  },
  {
   "name" : "_ZN4aidl7android8hardware4gnss20IGnssPowerIndication13writeToParcelEP7AParcelRKNSt3__110shared_ptrIS3_EE"
  },
  {
   "name" : "_ZN4aidl7android8hardware4gnss20IGnssPowerIndication14getDefaultImplEv"
  },
  {
   "name" : "_ZN4aidl7android8hardware4gnss20IGnssPowerIndication14readFromParcelEPK7AParcelPNSt3__110shared_ptrIS3_EE"
  },
  {
   "name" : "_ZN4aidl7android8hardware4gnss20IGnssPowerIndication14setDefaultImplERKNSt3__110shared_ptrIS3_EE"
  },
  {
   "name" : "_ZN4aidl7android8hardware4gnss20IGnssPowerIndicationC2Ev"
  },
  {
   "name" : "_ZN4aidl7android8hardware4gnss20IGnssPowerIndicationD0Ev"
  },
  {
   "name" : "_ZN4aidl7android8hardware4gnss20IGnssPowerIndicationD1Ev"
  },
  {
   "name" : "_ZN4aidl7android8hardware4gnss20IGnssPowerIndicationD2Ev"
  },
  {
   "name" : "_ZN4aidl7android8hardware4gnss21BnGnssPowerIndication12createBinderEv"
  },
  {
   "name" : "_ZN4aidl7android8hardware4gnss21BnGnssPowerIndication16getInterfaceHashEPNSt3__112basic_stringIcNS4_11char_traitsIcEENS4_9allocatorIcEEEE"
  },
  {
   "name" : "_ZN4aidl7android8hardware4gnss21BnGnssPowerIndication19getInterfaceVersionEPi"
  },
  {
   "name" : "_ZN4aidl7android8hardware4gnss21BnGnssPowerIndicationC2Ev"
  },
  {
   "name" : "_ZN4aidl7android8hardware4gnss21BnGnssPowerIndicationD0Ev"
  },
  {
   "name" : "_ZN4aidl7android8hardware4gnss21BnGnssPowerIndicationD1Ev"
  },
  {
   "name" : "_ZN4aidl7android8hardware4gnss21BnGnssPowerIndicationD2Ev"
  },
  {
   "name" : "_ZN4aidl7android8hardware4gnss21BpGnssPowerIndication11setCallbackERKNSt3__110shared_ptrINS2_28IGnssPowerIndicationCallbackEEE"
  },
  {
   "name" : "_ZN4aidl7android8hardware4gnss21BpGnssPowerIndication16getInterfaceHashEPNSt3__112basic_stringIcNS4_11char_traitsIcEENS4_9allocatorIcEEEE"
  },
  {
   "name" : "_ZN4aidl7android8hardware4gnss21BpGnssPowerIndication19getInterfaceVersionEPi"
  },
  {
   "name" : "_ZN4aidl7android8hardware4gnss21BpGnssPowerIndication21requestGnssPowerStatsEv"
  },
  {
   "name" : "_ZN4aidl7android8hardware4gnss21BpGnssPowerIndicationC1ERKN3ndk10SpAIBinderE"
  },
  {
   "name" : "_ZN4aidl7android8hardware4gnss21BpGnssPowerIndicationC2ERKN3ndk10SpAIBinderE"
  },
  {
   "name" : "_ZN4aidl7android8hardware4gnss21BpGnssPowerIndicationD0Ev"
  },
  {
   "name" : "_ZN4aidl7android8hardware4gnss21BpGnssPowerIndicationD1Ev"
  },
  {
   "name" : "_ZN4aidl7android8hardware4gnss21BpGnssPowerIndicationD2Ev"
  },
  {
   "name" : "_ZN4aidl7android8hardware4gnss21SatellitePositionEcef14readFromParcelEPK7AParcel"
  },
  {
   "name" : "_ZN4aidl7android8hardware4gnss21SatelliteVelocityEcef14readFromParcelEPK7AParcel"
  },
  {
   "name" : "_ZN4aidl7android8hardware4gnss24IGnssMeasurementCallback10fromBinderERKN3ndk10SpAIBinderE"
  },
  {
   "name" : "_ZN4aidl7android8hardware4gnss24IGnssMeasurementCallback13writeToParcelEP7AParcelRKNSt3__110shared_ptrIS3_EE"
  },
  {
   "name" : "_ZN4aidl7android8hardware4gnss24IGnssMeasurementCallback14getDefaultImplEv"
  },
  {
   "name" : "_ZN4aidl7android8hardware4gnss24IGnssMeasurementCallback14readFromParcelEPK7AParcelPNSt3__110shared_ptrIS3_EE"
  },
  {
   "name" : "_ZN4aidl7android8hardware4gnss24IGnssMeasurementCallback14setDefaultImplERKNSt3__110shared_ptrIS3_EE"
  },
  {
   "name" : "_ZN4aidl7android8hardware4gnss24IGnssMeasurementCallbackC2Ev"
  },
  {
   "name" : "_ZN4aidl7android8hardware4gnss24IGnssMeasurementCallbackD0Ev"
  },
  {
   "name" : "_ZN4aidl7android8hardware4gnss24IGnssMeasurementCallbackD1Ev"
  },
  {
   "name" : "_ZN4aidl7android8hardware4gnss24IGnssMeasurementCallbackD2Ev"
  },
  {
   "name" : "_ZN4aidl7android8hardware4gnss24IGnssPsdsCallbackDefault16getInterfaceHashEPNSt3__112basic_stringIcNS4_11char_traitsIcEENS4_9allocatorIcEEEE"
  },
  {
   "name" : "_ZN4aidl7android8hardware4gnss24IGnssPsdsCallbackDefault17downloadRequestCbENS2_8PsdsTypeE"
  },
  {
   "name" : "_ZN4aidl7android8hardware4gnss24IGnssPsdsCallbackDefault19getInterfaceVersionEPi"
  },
  {
   "name" : "_ZN4aidl7android8hardware4gnss24IGnssPsdsCallbackDefault8asBinderEv"
  },
  {
   "name" : "_ZN4aidl7android8hardware4gnss24IGnssPsdsCallbackDefault8isRemoteEv"
  },
  {
   "name" : "_ZN4aidl7android8hardware4gnss25BnGnssMeasurementCallback12createBinderEv"
  },
  {
   "name" : "_ZN4aidl7android8hardware4gnss25BnGnssMeasurementCallback16getInterfaceHashEPNSt3__112basic_stringIcNS4_11char_traitsIcEENS4_9allocatorIcEEEE"
  },
  {
   "name" : "_ZN4aidl7android8hardware4gnss25BnGnssMeasurementCallback19getInterfaceVersionEPi"
  },
  {
   "name" : "_ZN4aidl7android8hardware4gnss25BnGnssMeasurementCallbackC2Ev"
  },
  {
   "name" : "_ZN4aidl7android8hardware4gnss25BnGnssMeasurementCallbackD0Ev"
  },
  {
   "name" : "_ZN4aidl7android8hardware4gnss25BnGnssMeasurementCallbackD1Ev"
  },
  {
   "name" : "_ZN4aidl7android8hardware4gnss25BnGnssMeasurementCallbackD2Ev"
  },
  {
   "name" : "_ZN4aidl7android8hardware4gnss25BpGnssMeasurementCallback16getInterfaceHashEPNSt3__112basic_stringIcNS4_11char_traitsIcEENS4_9allocatorIcEEEE"
  },
  {
   "name" : "_ZN4aidl7android8hardware4gnss25BpGnssMeasurementCallback17gnssMeasurementCbERKNS2_8GnssDataE"
  },
  {
   "name" : "_ZN4aidl7android8hardware4gnss25BpGnssMeasurementCallback19getInterfaceVersionEPi"
  },
  {
   "name" : "_ZN4aidl7android8hardware4gnss25BpGnssMeasurementCallbackC1ERKN3ndk10SpAIBinderE"
  },
  {
   "name" : "_ZN4aidl7android8hardware4gnss25BpGnssMeasurementCallbackC2ERKN3ndk10SpAIBinderE"
  },
  {
   "name" : "_ZN4aidl7android8hardware4gnss25BpGnssMeasurementCallbackD0Ev"
  },
  {
   "name" : "_ZN4aidl7android8hardware4gnss25BpGnssMeasurementCallbackD1Ev"
  },
  {
   "name" : "_ZN4aidl7android8hardware4gnss25BpGnssMeasurementCallbackD2Ev"
  },
  {
   "name" : "_ZN4aidl7android8hardware4gnss25IGnssConfigurationDefault11setSuplModeEi"
  },
  {
   "name" : "_ZN4aidl7android8hardware4gnss25IGnssConfigurationDefault12setBlocklistERKNSt3__16vectorINS2_17BlocklistedSourceENS4_9allocatorIS6_EEEE"
  },
  {
   "name" : "_ZN4aidl7android8hardware4gnss25IGnssConfigurationDefault13setLppProfileEi"
  },
  {
   "name" : "_ZN4aidl7android8hardware4gnss25IGnssConfigurationDefault14setSuplVersionEi"
  },
  {
   "name" : "_ZN4aidl7android8hardware4gnss25IGnssConfigurationDefault16getInterfaceHashEPNSt3__112basic_stringIcNS4_11char_traitsIcEENS4_9allocatorIcEEEE"
  },
  {
   "name" : "_ZN4aidl7android8hardware4gnss25IGnssConfigurationDefault17setEsExtensionSecEi"
  },
  {
   "name" : "_ZN4aidl7android8hardware4gnss25IGnssConfigurationDefault19getInterfaceVersionEPi"
  },
  {
   "name" : "_ZN4aidl7android8hardware4gnss25IGnssConfigurationDefault19setEmergencySuplPdnEb"
  },
  {
   "name" : "_ZN4aidl7android8hardware4gnss25IGnssConfigurationDefault29setGlonassPositioningProtocolEi"
  },
  {
   "name" : "_ZN4aidl7android8hardware4gnss25IGnssConfigurationDefault8asBinderEv"
  },
  {
   "name" : "_ZN4aidl7android8hardware4gnss25IGnssConfigurationDefault8isRemoteEv"
  },
  {
   "name" : "_ZN4aidl7android8hardware4gnss25IGnssMeasurementInterface10fromBinderERKN3ndk10SpAIBinderE"
  },
  {
   "name" : "_ZN4aidl7android8hardware4gnss25IGnssMeasurementInterface13writeToParcelEP7AParcelRKNSt3__110shared_ptrIS3_EE"
  },
  {
   "name" : "_ZN4aidl7android8hardware4gnss25IGnssMeasurementInterface14getDefaultImplEv"
  },
  {
   "name" : "_ZN4aidl7android8hardware4gnss25IGnssMeasurementInterface14readFromParcelEPK7AParcelPNSt3__110shared_ptrIS3_EE"
  },
  {
   "name" : "_ZN4aidl7android8hardware4gnss25IGnssMeasurementInterface14setDefaultImplERKNSt3__110shared_ptrIS3_EE"
  },
  {
   "name" : "_ZN4aidl7android8hardware4gnss25IGnssMeasurementInterfaceC2Ev"
  },
  {
   "name" : "_ZN4aidl7android8hardware4gnss25IGnssMeasurementInterfaceD0Ev"
  },
  {
   "name" : "_ZN4aidl7android8hardware4gnss25IGnssMeasurementInterfaceD1Ev"
  },
  {
   "name" : "_ZN4aidl7android8hardware4gnss25IGnssMeasurementInterfaceD2Ev"
  },
  {
   "name" : "_ZN4aidl7android8hardware4gnss26BnGnssMeasurementInterface12createBinderEv"
  },
  {
   "name" : "_ZN4aidl7android8hardware4gnss26BnGnssMeasurementInterface16getInterfaceHashEPNSt3__112basic_stringIcNS4_11char_traitsIcEENS4_9allocatorIcEEEE"
  },
  {
   "name" : "_ZN4aidl7android8hardware4gnss26BnGnssMeasurementInterface19getInterfaceVersionEPi"
  },
  {
   "name" : "_ZN4aidl7android8hardware4gnss26BnGnssMeasurementInterfaceC2Ev"
  },
  {
   "name" : "_ZN4aidl7android8hardware4gnss26BnGnssMeasurementInterfaceD0Ev"
  },
  {
   "name" : "_ZN4aidl7android8hardware4gnss26BnGnssMeasurementInterfaceD1Ev"
  },
  {
   "name" : "_ZN4aidl7android8hardware4gnss26BnGnssMeasurementInterfaceD2Ev"
  },
  {
   "name" : "_ZN4aidl7android8hardware4gnss26BpGnssMeasurementInterface11setCallbackERKNSt3__110shared_ptrINS2_24IGnssMeasurementCallbackEEEbb"
  },
  {
   "name" : "_ZN4aidl7android8hardware4gnss26BpGnssMeasurementInterface16getInterfaceHashEPNSt3__112basic_stringIcNS4_11char_traitsIcEENS4_9allocatorIcEEEE"
  },
  {
   "name" : "_ZN4aidl7android8hardware4gnss26BpGnssMeasurementInterface19getInterfaceVersionEPi"
  },
  {
   "name" : "_ZN4aidl7android8hardware4gnss26BpGnssMeasurementInterface5closeEv"
  },
  {
   "name" : "_ZN4aidl7android8hardware4gnss26BpGnssMeasurementInterfaceC1ERKN3ndk10SpAIBinderE"
  },
  {
   "name" : "_ZN4aidl7android8hardware4gnss26BpGnssMeasurementInterfaceC2ERKN3ndk10SpAIBinderE"
  },
  {
   "name" : "_ZN4aidl7android8hardware4gnss26BpGnssMeasurementInterfaceD0Ev"
  },
  {
   "name" : "_ZN4aidl7android8hardware4gnss26BpGnssMeasurementInterfaceD1Ev"
  },
  {
   "name" : "_ZN4aidl7android8hardware4gnss26BpGnssMeasurementInterfaceD2Ev"
  },
  {
   "name" : "_ZN4aidl7android8hardware4gnss27IGnssPowerIndicationDefault11setCallbackERKNSt3__110shared_ptrINS2_28IGnssPowerIndicationCallbackEEE"
  },
  {
   "name" : "_ZN4aidl7android8hardware4gnss27IGnssPowerIndicationDefault16getInterfaceHashEPNSt3__112basic_stringIcNS4_11char_traitsIcEENS4_9allocatorIcEEEE"
  },
  {
   "name" : "_ZN4aidl7android8hardware4gnss27IGnssPowerIndicationDefault19getInterfaceVersionEPi"
  },
  {
   "name" : "_ZN4aidl7android8hardware4gnss27IGnssPowerIndicationDefault21requestGnssPowerStatsEv"
  },
  {
   "name" : "_ZN4aidl7android8hardware4gnss27IGnssPowerIndicationDefault8asBinderEv"
  },
  {
   "name" : "_ZN4aidl7android8hardware4gnss27IGnssPowerIndicationDefault8isRemoteEv"
  },
  {
   "name" : "_ZN4aidl7android8hardware4gnss28IGnssPowerIndicationCallback10fromBinderERKN3ndk10SpAIBinderE"
  },
  {
   "name" : "_ZN4aidl7android8hardware4gnss28IGnssPowerIndicationCallback13writeToParcelEP7AParcelRKNSt3__110shared_ptrIS3_EE"
  },
  {
   "name" : "_ZN4aidl7android8hardware4gnss28IGnssPowerIndicationCallback14getDefaultImplEv"
  },
  {
   "name" : "_ZN4aidl7android8hardware4gnss28IGnssPowerIndicationCallback14readFromParcelEPK7AParcelPNSt3__110shared_ptrIS3_EE"
  },
  {
   "name" : "_ZN4aidl7android8hardware4gnss28IGnssPowerIndicationCallback14setDefaultImplERKNSt3__110shared_ptrIS3_EE"
  },
  {
   "name" : "_ZN4aidl7android8hardware4gnss28IGnssPowerIndicationCallbackC2Ev"
  },
  {
   "name" : "_ZN4aidl7android8hardware4gnss28IGnssPowerIndicationCallbackD0Ev"
  },
  {
   "name" : "_ZN4aidl7android8hardware4gnss28IGnssPowerIndicationCallbackD1Ev"
  },
  {
   "name" : "_ZN4aidl7android8hardware4gnss28IGnssPowerIndicationCallbackD2Ev"
  },
  {
   "name" : "_ZN4aidl7android8hardware4gnss29BnGnssPowerIndicationCallback12createBinderEv"
  },
  {
   "name" : "_ZN4aidl7android8hardware4gnss29BnGnssPowerIndicationCallback16getInterfaceHashEPNSt3__112basic_stringIcNS4_11char_traitsIcEENS4_9allocatorIcEEEE"
  },
  {
   "name" : "_ZN4aidl7android8hardware4gnss29BnGnssPowerIndicationCallback19getInterfaceVersionEPi"
  },
  {
   "name" : "_ZN4aidl7android8hardware4gnss29BnGnssPowerIndicationCallbackC2Ev"
  },
  {
   "name" : "_ZN4aidl7android8hardware4gnss29BnGnssPowerIndicationCallbackD0Ev"
  },
  {
   "name" : "_ZN4aidl7android8hardware4gnss29BnGnssPowerIndicationCallbackD1Ev"
  },
  {
   "name" : "_ZN4aidl7android8hardware4gnss29BnGnssPowerIndicationCallbackD2Ev"
  },
  {
   "name" : "_ZN4aidl7android8hardware4gnss29BpGnssPowerIndicationCallback16getInterfaceHashEPNSt3__112basic_stringIcNS4_11char_traitsIcEENS4_9allocatorIcEEEE"
  },
  {
   "name" : "_ZN4aidl7android8hardware4gnss29BpGnssPowerIndicationCallback16gnssPowerStatsCbERKNS2_14GnssPowerStatsE"
  },
  {
   "name" : "_ZN4aidl7android8hardware4gnss29BpGnssPowerIndicationCallback17setCapabilitiesCbEi"
  },
  {
   "name" : "_ZN4aidl7android8hardware4gnss29BpGnssPowerIndicationCallback19getInterfaceVersionEPi"
  },
  {
   "name" : "_ZN4aidl7android8hardware4gnss29BpGnssPowerIndicationCallbackC1ERKN3ndk10SpAIBinderE"
  },
  {
   "name" : "_ZN4aidl7android8hardware4gnss29BpGnssPowerIndicationCallbackC2ERKN3ndk10SpAIBinderE"
  },
  {
   "name" : "_ZN4aidl7android8hardware4gnss29BpGnssPowerIndicationCallbackD0Ev"
  },
  {
   "name" : "_ZN4aidl7android8hardware4gnss29BpGnssPowerIndicationCallbackD1Ev"
  },
  {
   "name" : "_ZN4aidl7android8hardware4gnss29BpGnssPowerIndicationCallbackD2Ev"
  },
  {
   "name" : "_ZN4aidl7android8hardware4gnss31IGnssMeasurementCallbackDefault16getInterfaceHashEPNSt3__112basic_stringIcNS4_11char_traitsIcEENS4_9allocatorIcEEEE"
  },
  {
   "name" : "_ZN4aidl7android8hardware4gnss31IGnssMeasurementCallbackDefault17gnssMeasurementCbERKNS2_8GnssDataE"
  },
  {
   "name" : "_ZN4aidl7android8hardware4gnss31IGnssMeasurementCallbackDefault19getInterfaceVersionEPi"
  },
  {
   "name" : "_ZN4aidl7android8hardware4gnss31IGnssMeasurementCallbackDefault8asBinderEv"
  },
  {
   "name" : "_ZN4aidl7android8hardware4gnss31IGnssMeasurementCallbackDefault8isRemoteEv"
  },
  {
   "name" : "_ZN4aidl7android8hardware4gnss32IGnssMeasurementInterfaceDefault11setCallbackERKNSt3__110shared_ptrINS2_24IGnssMeasurementCallbackEEEbb"
  },
  {
   "name" : "_ZN4aidl7android8hardware4gnss32IGnssMeasurementInterfaceDefault16getInterfaceHashEPNSt3__112basic_stringIcNS4_11char_traitsIcEENS4_9allocatorIcEEEE"
  },
  {
   "name" : "_ZN4aidl7android8hardware4gnss32IGnssMeasurementInterfaceDefault19getInterfaceVersionEPi"
  },
  {
   "name" : "_ZN4aidl7android8hardware4gnss32IGnssMeasurementInterfaceDefault5closeEv"
  },
  {
   "name" : "_ZN4aidl7android8hardware4gnss32IGnssMeasurementInterfaceDefault8asBinderEv"
  },
  {
   "name" : "_ZN4aidl7android8hardware4gnss32IGnssMeasurementInterfaceDefault8isRemoteEv"
  },
  {
   "name" : "_ZN4aidl7android8hardware4gnss35IGnssPowerIndicationCallbackDefault16getInterfaceHashEPNSt3__112basic_stringIcNS4_11char_traitsIcEENS4_9allocatorIcEEEE"
  },
  {
   "name" : "_ZN4aidl7android8hardware4gnss35IGnssPowerIndicationCallbackDefault16gnssPowerStatsCbERKNS2_14GnssPowerStatsE"
  },
  {
   "name" : "_ZN4aidl7android8hardware4gnss35IGnssPowerIndicationCallbackDefault17setCapabilitiesCbEi"
  },
  {
   "name" : "_ZN4aidl7android8hardware4gnss35IGnssPowerIndicationCallbackDefault19getInterfaceVersionEPi"
  },
  {
   "name" : "_ZN4aidl7android8hardware4gnss35IGnssPowerIndicationCallbackDefault8asBinderEv"
  },
  {
   "name" : "_ZN4aidl7android8hardware4gnss35IGnssPowerIndicationCallbackDefault8isRemoteEv"
  },
  {
   "name" : "_ZN4aidl7android8hardware4gnss5IGnss10fromBinderERKN3ndk10SpAIBinderE"
  },
  {
   "name" : "_ZN4aidl7android8hardware4gnss5IGnss13writeToParcelEP7AParcelRKNSt3__110shared_ptrIS3_EE"
  },
  {
   "name" : "_ZN4aidl7android8hardware4gnss5IGnss14getDefaultImplEv"
  },
  {
   "name" : "_ZN4aidl7android8hardware4gnss5IGnss14readFromParcelEPK7AParcelPNSt3__110shared_ptrIS3_EE"
  },
  {
   "name" : "_ZN4aidl7android8hardware4gnss5IGnss14setDefaultImplERKNSt3__110shared_ptrIS3_EE"
  },
  {
   "name" : "_ZN4aidl7android8hardware4gnss5IGnssC2Ev"
  },
  {
   "name" : "_ZN4aidl7android8hardware4gnss5IGnssD0Ev"
  },
  {
   "name" : "_ZN4aidl7android8hardware4gnss5IGnssD1Ev"
  },
  {
   "name" : "_ZN4aidl7android8hardware4gnss5IGnssD2Ev"
  },
  {
   "name" : "_ZN4aidl7android8hardware4gnss6BnGnss12createBinderEv"
  },
  {
   "name" : "_ZN4aidl7android8hardware4gnss6BnGnss16getInterfaceHashEPNSt3__112basic_stringIcNS4_11char_traitsIcEENS4_9allocatorIcEEEE"
  },
  {
   "name" : "_ZN4aidl7android8hardware4gnss6BnGnss19getInterfaceVersionEPi"
  },
  {
   "name" : "_ZN4aidl7android8hardware4gnss6BnGnssC2Ev"
  },
  {
   "name" : "_ZN4aidl7android8hardware4gnss6BnGnssD0Ev"
  },
  {
   "name" : "_ZN4aidl7android8hardware4gnss6BnGnssD1Ev"
  },
  {
   "name" : "_ZN4aidl7android8hardware4gnss6BnGnssD2Ev"
  },
  {
   "name" : "_ZN4aidl7android8hardware4gnss6BpGnss11setCallbackERKNSt3__110shared_ptrINS2_13IGnssCallbackEEE"
  },
  {
   "name" : "_ZN4aidl7android8hardware4gnss6BpGnss16getExtensionPsdsEPNSt3__110shared_ptrINS2_9IGnssPsdsEEE"
  },
  {
   "name" : "_ZN4aidl7android8hardware4gnss6BpGnss16getInterfaceHashEPNSt3__112basic_stringIcNS4_11char_traitsIcEENS4_9allocatorIcEEEE"
  },
  {
   "name" : "_ZN4aidl7android8hardware4gnss6BpGnss19getInterfaceVersionEPi"
  },
  {
   "name" : "_ZN4aidl7android8hardware4gnss6BpGnss27getExtensionGnssMeasurementEPNSt3__110shared_ptrINS2_25IGnssMeasurementInterfaceEEE"
  },
  {
   "name" : "_ZN4aidl7android8hardware4gnss6BpGnss29getExtensionGnssConfigurationEPNSt3__110shared_ptrINS2_18IGnssConfigurationEEE"
  },
  {
   "name" : "_ZN4aidl7android8hardware4gnss6BpGnss31getExtensionGnssPowerIndicationEPNSt3__110shared_ptrINS2_20IGnssPowerIndicationEEE"
  },
  {
   "name" : "_ZN4aidl7android8hardware4gnss6BpGnss5closeEv"
  },
  {
   "name" : "_ZN4aidl7android8hardware4gnss6BpGnssC1ERKN3ndk10SpAIBinderE"
  },
  {
   "name" : "_ZN4aidl7android8hardware4gnss6BpGnssC2ERKN3ndk10SpAIBinderE"
  },
  {
   "name" : "_ZN4aidl7android8hardware4gnss6BpGnssD0Ev"
  },
  {
   "name" : "_ZN4aidl7android8hardware4gnss6BpGnssD1Ev"
  },
  {
   "name" : "_ZN4aidl7android8hardware4gnss6BpGnssD2Ev"
  },
  {
   "name" : "_ZN4aidl7android8hardware4gnss8GnssData14readFromParcelEPK7AParcel"
  },
  {
   "name" : "_ZN4aidl7android8hardware4gnss9GnssClock14readFromParcelEPK7AParcel"
  },
  {
   "name" : "_ZN4aidl7android8hardware4gnss9IGnssPsds10fromBinderERKN3ndk10SpAIBinderE"
  },
  {
   "name" : "_ZN4aidl7android8hardware4gnss9IGnssPsds13writeToParcelEP7AParcelRKNSt3__110shared_ptrIS3_EE"
  },
  {
   "name" : "_ZN4aidl7android8hardware4gnss9IGnssPsds14getDefaultImplEv"
  },
  {
   "name" : "_ZN4aidl7android8hardware4gnss9IGnssPsds14readFromParcelEPK7AParcelPNSt3__110shared_ptrIS3_EE"
  },
  {
   "name" : "_ZN4aidl7android8hardware4gnss9IGnssPsds14setDefaultImplERKNSt3__110shared_ptrIS3_EE"
  },
  {
   "name" : "_ZN4aidl7android8hardware4gnss9IGnssPsdsC2Ev"
  },
  {
   "name" : "_ZN4aidl7android8hardware4gnss9IGnssPsdsD0Ev"
  },
  {
   "name" : "_ZN4aidl7android8hardware4gnss9IGnssPsdsD1Ev"
  },
  {
   "name" : "_ZN4aidl7android8hardware4gnss9IGnssPsdsD2Ev"
  },
  {
   "name" : "_ZNK4aidl7android8hardware4gnss12SatellitePvt13writeToParcelEP7AParcel"
  },
  {
   "name" : "_ZNK4aidl7android8hardware4gnss14GnssPowerStats13writeToParcelEP7AParcel"
  },
  {
   "name" : "_ZNK4aidl7android8hardware4gnss14GnssSignalType13writeToParcelEP7AParcel"
  },
  {
   "name" : "_ZNK4aidl7android8hardware4gnss15ElapsedRealtime13writeToParcelEP7AParcel"
  },
  {
   "name" : "_ZNK4aidl7android8hardware4gnss15GnssMeasurement13writeToParcelEP7AParcel"
  },
  {
   "name" : "_ZNK4aidl7android8hardware4gnss17BlocklistedSource13writeToParcelEP7AParcel"
  },
  {
   "name" : "_ZNK4aidl7android8hardware4gnss17CorrelationVector13writeToParcelEP7AParcel"
  },
  {
   "name" : "_ZNK4aidl7android8hardware4gnss18SatelliteClockInfo13writeToParcelEP7AParcel"
  },
  {
   "name" : "_ZNK4aidl7android8hardware4gnss21SatellitePositionEcef13writeToParcelEP7AParcel"
  },
  {
   "name" : "_ZNK4aidl7android8hardware4gnss21SatelliteVelocityEcef13writeToParcelEP7AParcel"
  },
  {
   "name" : "_ZNK4aidl7android8hardware4gnss8GnssData13writeToParcelEP7AParcel"
  },
  {
   "name" : "_ZNK4aidl7android8hardware4gnss9GnssClock13writeToParcelEP7AParcel"
  },
  {
   "binding" : "weak",
   "name" : "_ZNSt3__110shared_ptrIN4aidl7android8hardware4gnss13IGnssCallbackEED2Ev"
  },
  {
   "binding" : "weak",
   "name" : "_ZNSt3__110shared_ptrIN4aidl7android8hardware4gnss17IGnssPsdsCallbackEED2Ev"
  },
  {
   "binding" : "weak",
   "name" : "_ZNSt3__110shared_ptrIN4aidl7android8hardware4gnss18IGnssConfigurationEED2Ev"
  },
  {
   "binding" : "weak",
   "name" : "_ZNSt3__110shared_ptrIN4aidl7android8hardware4gnss20IGnssPowerIndicationEED2Ev"
  },
  {
   "binding" : "weak",
   "name" : "_ZNSt3__110shared_ptrIN4aidl7android8hardware4gnss24IGnssMeasurementCallbackEED2Ev"
  },
  {
   "binding" : "weak",
   "name" : "_ZNSt3__110shared_ptrIN4aidl7android8hardware4gnss25IGnssMeasurementInterfaceEED2Ev"
  },
  {
   "binding" : "weak",
   "name" : "_ZNSt3__110shared_ptrIN4aidl7android8hardware4gnss28IGnssPowerIndicationCallbackEED2Ev"
  },
  {
   "binding" : "weak",
   "name" : "_ZNSt3__110shared_ptrIN4aidl7android8hardware4gnss5IGnssEED2Ev"
  },
  {
   "binding" : "weak",
   "name" : "_ZNSt3__110shared_ptrIN4aidl7android8hardware4gnss9IGnssPsdsEED2Ev"
  },
  {
   "binding" : "weak",
   "name" : "_ZNSt3__120__shared_ptr_pointerIPN3ndk13SharedRefBaseENS_14default_deleteIS2_EENS_9allocatorIS2_EEE16__on_zero_sharedEv"
  },
  {
   "binding" : "weak",
   "name" : "_ZNSt3__120__shared_ptr_pointerIPN3ndk13SharedRefBaseENS_14default_deleteIS2_EENS_9allocatorIS2_EEE21__on_zero_shared_weakEv"
  },
  {
   "binding" : "weak",
   "name" : "_ZNSt3__16vectorIN4aidl7android8hardware4gnss15GnssMeasurementENS_9allocatorIS5_EEE8__appendEj"
  },
  {
   "binding" : "weak",
   "name" : "_ZNSt3__16vectorIN4aidl7android8hardware4gnss17BlocklistedSourceENS_9allocatorIS5_EEE8__appendEj"
  },
  {
   "binding" : "weak",
   "name" : "_ZNSt3__16vectorIN4aidl7android8hardware4gnss17CorrelationVectorENS_9allocatorIS5_EEE8__appendEj"
  },
  {
   "binding" : "weak",
   "name" : "_ZNSt3__16vectorIaNS_9allocatorIaEEE8__appendEj"
  },
  {
   "binding" : "weak",
   "name" : "_ZNSt3__16vectorIdNS_9allocatorIdEEE8__appendEj"
  },
  {
   "binding" : "weak",
   "name" : "_ZNSt3__16vectorIiNS_9allocatorIiEEE8__appendEj"
  }
 ],
 "elf_objects" :
 [
  {
   "binding" : "weak",
   "name" : "_ZGVN4aidl7android8hardware4gnss13IGnssCallback4hashE"
  },
  {
   "binding" : "weak",
   "name" : "_ZGVN4aidl7android8hardware4gnss17IGnssPsdsCallback4hashE"
  },
  {
   "binding" : "weak",
   "name" : "_ZGVN4aidl7android8hardware4gnss18IGnssConfiguration4hashE"
  },
  {
   "binding" : "weak",
   "name" : "_ZGVN4aidl7android8hardware4gnss20IGnssPowerIndication4hashE"
  },
  {
   "binding" : "weak",
   "name" : "_ZGVN4aidl7android8hardware4gnss24IGnssMeasurementCallback4hashE"
  },
  {
   "binding" : "weak",
   "name" : "_ZGVN4aidl7android8hardware4gnss25IGnssMeasurementInterface4hashE"
  },
  {
   "binding" : "weak",
   "name" : "_ZGVN4aidl7android8hardware4gnss28IGnssPowerIndicationCallback4hashE"
  },
  {
   "binding" : "weak",
   "name" : "_ZGVN4aidl7android8hardware4gnss5IGnss4hashE"
  },
  {
   "binding" : "weak",
   "name" : "_ZGVN4aidl7android8hardware4gnss9IGnssPsds4hashE"
  },
  {
   "name" : "_ZN4aidl7android8hardware4gnss12SatellitePvt10descriptorE"
  },
  {
   "name" : "_ZN4aidl7android8hardware4gnss13IGnssCallback10descriptorE"
  },
  {
   "name" : "_ZN4aidl7android8hardware4gnss13IGnssCallback12default_implE"
  },
  {
   "binding" : "weak",
   "name" : "_ZN4aidl7android8hardware4gnss13IGnssCallback4hashE"
  },
  {
   "name" : "_ZN4aidl7android8hardware4gnss14GnssPowerStats10descriptorE"
  },
  {
   "name" : "_ZN4aidl7android8hardware4gnss14GnssSignalType10descriptorE"
  },
  {
   "name" : "_ZN4aidl7android8hardware4gnss14GnssSignalType11CODE_TYPE_AE"
  },
  {
   "name" : "_ZN4aidl7android8hardware4gnss14GnssSignalType11CODE_TYPE_BE"
  },
  {
   "name" : "_ZN4aidl7android8hardware4gnss14GnssSignalType11CODE_TYPE_CE"
  },
  {
   "name" : "_ZN4aidl7android8hardware4gnss14GnssSignalType11CODE_TYPE_DE"
  },
  {
   "name" : "_ZN4aidl7android8hardware4gnss14GnssSignalType11CODE_TYPE_IE"
  },
  {
   "name" : "_ZN4aidl7android8hardware4gnss14GnssSignalType11CODE_TYPE_LE"
  },
  {
   "name" : "_ZN4aidl7android8hardware4gnss14GnssSignalType11CODE_TYPE_ME"
  },
  {
   "name" : "_ZN4aidl7android8hardware4gnss14GnssSignalType11CODE_TYPE_NE"
  },
  {
   "name" : "_ZN4aidl7android8hardware4gnss14GnssSignalType11CODE_TYPE_PE"
  },
  {
   "name" : "_ZN4aidl7android8hardware4gnss14GnssSignalType11CODE_TYPE_QE"
  },
  {
   "name" : "_ZN4aidl7android8hardware4gnss14GnssSignalType11CODE_TYPE_SE"
  },
  {
   "name" : "_ZN4aidl7android8hardware4gnss14GnssSignalType11CODE_TYPE_WE"
  },
  {
   "name" : "_ZN4aidl7android8hardware4gnss14GnssSignalType11CODE_TYPE_XE"
  },
  {
   "name" : "_ZN4aidl7android8hardware4gnss14GnssSignalType11CODE_TYPE_YE"
  },
  {
   "name" : "_ZN4aidl7android8hardware4gnss14GnssSignalType11CODE_TYPE_ZE"
  },
  {
   "name" : "_ZN4aidl7android8hardware4gnss14GnssSignalType17CODE_TYPE_UNKNOWNE"
  },
  {
   "name" : "_ZN4aidl7android8hardware4gnss15ElapsedRealtime10descriptorE"
  },
  {
   "name" : "_ZN4aidl7android8hardware4gnss15GnssMeasurement10descriptorE"
  },
  {
   "name" : "_ZN4aidl7android8hardware4gnss17BlocklistedSource10descriptorE"
  },
  {
   "name" : "_ZN4aidl7android8hardware4gnss17CorrelationVector10descriptorE"
  },
  {
   "name" : "_ZN4aidl7android8hardware4gnss17IGnssPsdsCallback10descriptorE"
  },
  {
   "name" : "_ZN4aidl7android8hardware4gnss17IGnssPsdsCallback12default_implE"
  },
  {
   "binding" : "weak",
   "name" : "_ZN4aidl7android8hardware4gnss17IGnssPsdsCallback4hashE"
  },
  {
   "name" : "_ZN4aidl7android8hardware4gnss18IGnssConfiguration10descriptorE"
  },
  {
   "name" : "_ZN4aidl7android8hardware4gnss18IGnssConfiguration12default_implE"
  },
  {
   "binding" : "weak",
   "name" : "_ZN4aidl7android8hardware4gnss18IGnssConfiguration4hashE"
  },
  {
   "name" : "_ZN4aidl7android8hardware4gnss18SatelliteClockInfo10descriptorE"
  },
  {
   "name" : "_ZN4aidl7android8hardware4gnss20IGnssPowerIndication10descriptorE"
  },
  {
   "name" : "_ZN4aidl7android8hardware4gnss20IGnssPowerIndication12default_implE"
  },
  {
   "binding" : "weak",
   "name" : "_ZN4aidl7android8hardware4gnss20IGnssPowerIndication4hashE"
  },
  {
   "name" : "_ZN4aidl7android8hardware4gnss21SatellitePositionEcef10descriptorE"
  },
  {
   "name" : "_ZN4aidl7android8hardware4gnss21SatelliteVelocityEcef10descriptorE"
  },
  {
   "name" : "_ZN4aidl7android8hardware4gnss24IGnssMeasurementCallback10descriptorE"
  },
  {
   "name" : "_ZN4aidl7android8hardware4gnss24IGnssMeasurementCallback12default_implE"
  },
  {
   "binding" : "weak",
   "name" : "_ZN4aidl7android8hardware4gnss24IGnssMeasurementCallback4hashE"
  },
  {
   "name" : "_ZN4aidl7android8hardware4gnss25IGnssMeasurementInterface10descriptorE"
  },
  {
   "name" : "_ZN4aidl7android8hardware4gnss25IGnssMeasurementInterface12default_implE"
  },
  {
   "binding" : "weak",
   "name" : "_ZN4aidl7android8hardware4gnss25IGnssMeasurementInterface4hashE"
  },
  {
   "name" : "_ZN4aidl7android8hardware4gnss28IGnssPowerIndicationCallback10descriptorE"
  },
  {
   "name" : "_ZN4aidl7android8hardware4gnss28IGnssPowerIndicationCallback12default_implE"
  },
  {
   "binding" : "weak",
   "name" : "_ZN4aidl7android8hardware4gnss28IGnssPowerIndicationCallback4hashE"
  },
  {
   "name" : "_ZN4aidl7android8hardware4gnss5IGnss10descriptorE"
  },
  {
   "name" : "_ZN4aidl7android8hardware4gnss5IGnss12default_implE"
  },
  {
   "binding" : "weak",
   "name" : "_ZN4aidl7android8hardware4gnss5IGnss4hashE"
  },
  {
   "name" : "_ZN4aidl7android8hardware4gnss8GnssData10descriptorE"
  },
  {
   "name" : "_ZN4aidl7android8hardware4gnss9GnssClock10descriptorE"
  },
  {
   "name" : "_ZN4aidl7android8hardware4gnss9IGnssPsds10descriptorE"
  },
  {
   "name" : "_ZN4aidl7android8hardware4gnss9IGnssPsds12default_implE"
  },
  {
   "binding" : "weak",
   "name" : "_ZN4aidl7android8hardware4gnss9IGnssPsds4hashE"
  },
  {
   "binding" : "weak",
   "name" : "_ZTVN3ndk12BnCInterfaceIN4aidl7android8hardware4gnss13IGnssCallbackEEE"
  },
  {
   "binding" : "weak",
   "name" : "_ZTVN3ndk12BnCInterfaceIN4aidl7android8hardware4gnss17IGnssPsdsCallbackEEE"
  },
  {
   "binding" : "weak",
   "name" : "_ZTVN3ndk12BnCInterfaceIN4aidl7android8hardware4gnss18IGnssConfigurationEEE"
  },
  {
   "binding" : "weak",
   "name" : "_ZTVN3ndk12BnCInterfaceIN4aidl7android8hardware4gnss20IGnssPowerIndicationEEE"
  },
  {
   "binding" : "weak",
   "name" : "_ZTVN3ndk12BnCInterfaceIN4aidl7android8hardware4gnss24IGnssMeasurementCallbackEEE"
  },
  {
   "binding" : "weak",
   "name" : "_ZTVN3ndk12BnCInterfaceIN4aidl7android8hardware4gnss25IGnssMeasurementInterfaceEEE"
  },
  {
   "binding" : "weak",
   "name" : "_ZTVN3ndk12BnCInterfaceIN4aidl7android8hardware4gnss28IGnssPowerIndicationCallbackEEE"
  },
  {
   "binding" : "weak",
   "name" : "_ZTVN3ndk12BnCInterfaceIN4aidl7android8hardware4gnss5IGnssEEE"
  },
  {
   "binding" : "weak",
   "name" : "_ZTVN3ndk12BnCInterfaceIN4aidl7android8hardware4gnss9IGnssPsdsEEE"
  },
  {
   "binding" : "weak",
   "name" : "_ZTVN3ndk12BpCInterfaceIN4aidl7android8hardware4gnss13IGnssCallbackEEE"
  },
  {
   "binding" : "weak",
   "name" : "_ZTVN3ndk12BpCInterfaceIN4aidl7android8hardware4gnss17IGnssPsdsCallbackEEE"
  },
  {
   "binding" : "weak",
   "name" : "_ZTVN3ndk12BpCInterfaceIN4aidl7android8hardware4gnss18IGnssConfigurationEEE"
  },
  {
   "binding" : "weak",
   "name" : "_ZTVN3ndk12BpCInterfaceIN4aidl7android8hardware4gnss20IGnssPowerIndicationEEE"
  },
  {
   "binding" : "weak",
   "name" : "_ZTVN3ndk12BpCInterfaceIN4aidl7android8hardware4gnss24IGnssMeasurementCallbackEEE"
  },
  {
   "binding" : "weak",
   "name" : "_ZTVN3ndk12BpCInterfaceIN4aidl7android8hardware4gnss25IGnssMeasurementInterfaceEEE"
  },
  {
   "binding" : "weak",
   "name" : "_ZTVN3ndk12BpCInterfaceIN4aidl7android8hardware4gnss28IGnssPowerIndicationCallbackEEE"
  },
  {
   "binding" : "weak",
   "name" : "_ZTVN3ndk12BpCInterfaceIN4aidl7android8hardware4gnss5IGnssEEE"
  },
  {
   "binding" : "weak",
   "name" : "_ZTVN3ndk12BpCInterfaceIN4aidl7android8hardware4gnss9IGnssPsdsEEE"
  },
  {
   "binding" : "weak",
   "name" : "_ZTVN3ndk13SharedRefBaseE"
  },
  {
   "name" : "_ZTVN4aidl7android8hardware4gnss10BnGnssPsdsE"
  },
  {
   "name" : "_ZTVN4aidl7android8hardware4gnss10BpGnssPsdsE"
  },
  {
   "name" : "_ZTVN4aidl7android8hardware4gnss12IGnssDefaultE"
  },
  {
   "name" : "_ZTVN4aidl7android8hardware4gnss13IGnssCallbackE"
  },
  {
   "name" : "_ZTVN4aidl7android8hardware4gnss14BnGnssCallbackE"
  },
  {
   "name" : "_ZTVN4aidl7android8hardware4gnss14BpGnssCallbackE"
  },
  {
   "name" : "_ZTVN4aidl7android8hardware4gnss16IGnssPsdsDefaultE"
  },
  {
   "name" : "_ZTVN4aidl7android8hardware4gnss17IGnssPsdsCallbackE"
  },
  {
   "name" : "_ZTVN4aidl7android8hardware4gnss18BnGnssPsdsCallbackE"
  },
  {
   "name" : "_ZTVN4aidl7android8hardware4gnss18BpGnssPsdsCallbackE"
  },
  {
   "name" : "_ZTVN4aidl7android8hardware4gnss18IGnssConfigurationE"
  },
  {
   "name" : "_ZTVN4aidl7android8hardware4gnss19BnGnssConfigurationE"
  },
  {
   "name" : "_ZTVN4aidl7android8hardware4gnss19BpGnssConfigurationE"
  },
  {
   "name" : "_ZTVN4aidl7android8hardware4gnss20IGnssCallbackDefaultE"
  },
  {
   "name" : "_ZTVN4aidl7android8hardware4gnss20IGnssPowerIndicationE"
  },
  {
   "name" : "_ZTVN4aidl7android8hardware4gnss21BnGnssPowerIndicationE"
  },
  {
   "name" : "_ZTVN4aidl7android8hardware4gnss21BpGnssPowerIndicationE"
  },
  {
   "name" : "_ZTVN4aidl7android8hardware4gnss24IGnssMeasurementCallbackE"
  },
  {
   "name" : "_ZTVN4aidl7android8hardware4gnss24IGnssPsdsCallbackDefaultE"
  },
  {
   "name" : "_ZTVN4aidl7android8hardware4gnss25BnGnssMeasurementCallbackE"
  },
  {
   "name" : "_ZTVN4aidl7android8hardware4gnss25BpGnssMeasurementCallbackE"
  },
  {
   "name" : "_ZTVN4aidl7android8hardware4gnss25IGnssConfigurationDefaultE"
  },
  {
   "name" : "_ZTVN4aidl7android8hardware4gnss25IGnssMeasurementInterfaceE"
  },
  {
   "name" : "_ZTVN4aidl7android8hardware4gnss26BnGnssMeasurementInterfaceE"
  },
  {
   "name" : "_ZTVN4aidl7android8hardware4gnss26BpGnssMeasurementInterfaceE"
  },
  {
   "name" : "_ZTVN4aidl7android8hardware4gnss27IGnssPowerIndicationDefaultE"
  },
  {
   "name" : "_ZTVN4aidl7android8hardware4gnss28IGnssPowerIndicationCallbackE"
  },
  {
   "name" : "_ZTVN4aidl7android8hardware4gnss29BnGnssPowerIndicationCallbackE"
  },
  {
   "name" : "_ZTVN4aidl7android8hardware4gnss29BpGnssPowerIndicationCallbackE"
  },
  {
   "name" : "_ZTVN4aidl7android8hardware4gnss31IGnssMeasurementCallbackDefaultE"
  },
  {
   "name" : "_ZTVN4aidl7android8hardware4gnss32IGnssMeasurementInterfaceDefaultE"
  },
  {
   "name" : "_ZTVN4aidl7android8hardware4gnss35IGnssPowerIndicationCallbackDefaultE"
  },
  {
   "name" : "_ZTVN4aidl7android8hardware4gnss5IGnssE"
  },
  {
   "name" : "_ZTVN4aidl7android8hardware4gnss6BnGnssE"
  },
  {
   "name" : "_ZTVN4aidl7android8hardware4gnss6BpGnssE"
  },
  {
   "name" : "_ZTVN4aidl7android8hardware4gnss9IGnssPsdsE"
  },
  {
   "binding" : "weak",
   "name" : "_ZTVNSt3__120__shared_ptr_pointerIPN3ndk13SharedRefBaseENS_14default_deleteIS2_EENS_9allocatorIS2_EEEE"
  }
 ],
 "enum_types" : [],
 "function_types" : [],
 "functions" : [],
 "global_vars" : [],
 "lvalue_reference_types" : [],
 "pointer_types" : [],
 "qualified_types" : [],
 "record_types" : [],
 "rvalue_reference_types" : []
}
